
kernel:     file format elf64-littleriscv


Disassembly of section .text:

0000000080000000 <_entry>:
    80000000:	0000c117          	auipc	sp,0xc
    80000004:	90813103          	ld	sp,-1784(sp) # 8000b908 <_GLOBAL_OFFSET_TABLE_+0x30>
    80000008:	00001537          	lui	a0,0x1
    8000000c:	f14025f3          	csrr	a1,mhartid
    80000010:	00158593          	addi	a1,a1,1
    80000014:	02b50533          	mul	a0,a0,a1
    80000018:	00a10133          	add	sp,sp,a0
    8000001c:	6ac060ef          	jal	ra,800066c8 <start>

0000000080000020 <spin>:
    80000020:	0000006f          	j	80000020 <spin>
	...

0000000080001000 <_ZN5Riscv14supervisorTrapEv>:
.align 4
.global _ZN5Riscv14supervisorTrapEv
.type _ZN5Riscv14supervisorTrapEv, @function
_ZN5Riscv14supervisorTrapEv:
    # push all registers to stack
    addi sp, sp, -256
    80001000:	f0010113          	addi	sp,sp,-256
    .irp index, 0,1,2,3,4,5,6,7,8,9,11,12,13,14,15,16,17,18,19,20,21,22,23,24,25,26,27,28,29,30,31
    sd x\index, \index * 8(sp)
    .endr
    80001004:	00013023          	sd	zero,0(sp)
    80001008:	00113423          	sd	ra,8(sp)
    8000100c:	00213823          	sd	sp,16(sp)
    80001010:	00313c23          	sd	gp,24(sp)
    80001014:	02413023          	sd	tp,32(sp)
    80001018:	02513423          	sd	t0,40(sp)
    8000101c:	02613823          	sd	t1,48(sp)
    80001020:	02713c23          	sd	t2,56(sp)
    80001024:	04813023          	sd	s0,64(sp)
    80001028:	04913423          	sd	s1,72(sp)
    8000102c:	04b13c23          	sd	a1,88(sp)
    80001030:	06c13023          	sd	a2,96(sp)
    80001034:	06d13423          	sd	a3,104(sp)
    80001038:	06e13823          	sd	a4,112(sp)
    8000103c:	06f13c23          	sd	a5,120(sp)
    80001040:	09013023          	sd	a6,128(sp)
    80001044:	09113423          	sd	a7,136(sp)
    80001048:	09213823          	sd	s2,144(sp)
    8000104c:	09313c23          	sd	s3,152(sp)
    80001050:	0b413023          	sd	s4,160(sp)
    80001054:	0b513423          	sd	s5,168(sp)
    80001058:	0b613823          	sd	s6,176(sp)
    8000105c:	0b713c23          	sd	s7,184(sp)
    80001060:	0d813023          	sd	s8,192(sp)
    80001064:	0d913423          	sd	s9,200(sp)
    80001068:	0da13823          	sd	s10,208(sp)
    8000106c:	0db13c23          	sd	s11,216(sp)
    80001070:	0fc13023          	sd	t3,224(sp)
    80001074:	0fd13423          	sd	t4,232(sp)
    80001078:	0fe13823          	sd	t5,240(sp)
    8000107c:	0ff13c23          	sd	t6,248(sp)

    call _ZN5Riscv20handleSupervisorTrapEv
    80001080:	15c010ef          	jal	ra,800021dc <_ZN5Riscv20handleSupervisorTrapEv>


    # pop all registers from stack
    .irp index, 0,1,2,3,4,5,6,7,8,9,11,12,13,14,15,16,17,18,19,20,21,22,23,24,25,26,27,28,29,30,31
    ld x\index, \index * 8(sp)
    .endr
    80001084:	00013003          	ld	zero,0(sp)
    80001088:	00813083          	ld	ra,8(sp)
    8000108c:	01013103          	ld	sp,16(sp)
    80001090:	01813183          	ld	gp,24(sp)
    80001094:	02013203          	ld	tp,32(sp)
    80001098:	02813283          	ld	t0,40(sp)
    8000109c:	03013303          	ld	t1,48(sp)
    800010a0:	03813383          	ld	t2,56(sp)
    800010a4:	04013403          	ld	s0,64(sp)
    800010a8:	04813483          	ld	s1,72(sp)
    800010ac:	05813583          	ld	a1,88(sp)
    800010b0:	06013603          	ld	a2,96(sp)
    800010b4:	06813683          	ld	a3,104(sp)
    800010b8:	07013703          	ld	a4,112(sp)
    800010bc:	07813783          	ld	a5,120(sp)
    800010c0:	08013803          	ld	a6,128(sp)
    800010c4:	08813883          	ld	a7,136(sp)
    800010c8:	09013903          	ld	s2,144(sp)
    800010cc:	09813983          	ld	s3,152(sp)
    800010d0:	0a013a03          	ld	s4,160(sp)
    800010d4:	0a813a83          	ld	s5,168(sp)
    800010d8:	0b013b03          	ld	s6,176(sp)
    800010dc:	0b813b83          	ld	s7,184(sp)
    800010e0:	0c013c03          	ld	s8,192(sp)
    800010e4:	0c813c83          	ld	s9,200(sp)
    800010e8:	0d013d03          	ld	s10,208(sp)
    800010ec:	0d813d83          	ld	s11,216(sp)
    800010f0:	0e013e03          	ld	t3,224(sp)
    800010f4:	0e813e83          	ld	t4,232(sp)
    800010f8:	0f013f03          	ld	t5,240(sp)
    800010fc:	0f813f83          	ld	t6,248(sp)
    addi sp, sp, 256
    80001100:	10010113          	addi	sp,sp,256

    80001104:	10200073          	sret
	...

0000000080001110 <_ZN3TCB13contextSwitchEPNS_7ContextES1_>:
.global _ZN3TCB13contextSwitchEPNS_7ContextES1_
.type _ZN3TCB13contextSwitchEPNS_7ContextES1_, @function
_ZN3TCB13contextSwitchEPNS_7ContextES1_:
    sd ra, 0 * 8(a0)
    80001110:	00153023          	sd	ra,0(a0) # 1000 <_entry-0x7ffff000>
    sd sp, 1 * 8(a0)
    80001114:	00253423          	sd	sp,8(a0)

    ld ra, 0 * 8(a1)
    80001118:	0005b083          	ld	ra,0(a1)
    ld sp, 1 * 8(a1)
    8000111c:	0085b103          	ld	sp,8(a1)

    80001120:	00008067          	ret

0000000080001124 <copy_and_swap>:
# a1 holds expected value
# a2 holds desired value
# a0 holds return value, 0 if successful, !0 otherwise
.global copy_and_swap
copy_and_swap:
    lr.w t0, (a0)          # Load original value.
    80001124:	100522af          	lr.w	t0,(a0)
    bne t0, a1, fail       # Doesn’t match, so fail.
    80001128:	00b29a63          	bne	t0,a1,8000113c <fail>
    sc.w t0, a2, (a0)      # Try to update.
    8000112c:	18c522af          	sc.w	t0,a2,(a0)
    bnez t0, copy_and_swap # Retry if store-conditional failed.
    80001130:	fe029ae3          	bnez	t0,80001124 <copy_and_swap>
    li a0, 0               # Set return to success.
    80001134:	00000513          	li	a0,0
    jr ra                  # Return.
    80001138:	00008067          	ret

000000008000113c <fail>:
    fail:
    li a0, 1               # Set return to failure.
    8000113c:	00100513          	li	a0,1
    80001140:	00008067          	ret

0000000080001144 <_Z12modifikacijav>:
//
// Created by os on 9/16/24.
//
#include "../h/mod.hpp"

void modifikacija(){
    80001144:	ff010113          	addi	sp,sp,-16
    80001148:	00813423          	sd	s0,8(sp)
    8000114c:	01010413          	addi	s0,sp,16





    80001150:	00813403          	ld	s0,8(sp)
    80001154:	01010113          	addi	sp,sp,16
    80001158:	00008067          	ret

000000008000115c <mem_alloc>:
inline void abi_invoke() {
    __asm__ volatile("ecall");
}

void *mem_alloc(size_t size) {
    if (size == 0) return nullptr;
    8000115c:	02050c63          	beqz	a0,80001194 <mem_alloc+0x38>
void *mem_alloc(size_t size) {
    80001160:	fe010113          	addi	sp,sp,-32
    80001164:	00813c23          	sd	s0,24(sp)
    80001168:	02010413          	addi	s0,sp,32
            );
    return a1;
}

inline void Riscv::w_a1(uint64 val) {
    __asm__ volatile ("mv a1, %[val]": : [val] "r"(val));
    8000116c:	00050593          	mv	a1,a0
    __asm__ volatile ("mv a0, %[val]": : [val] "r"(val));
    80001170:	00100793          	li	a5,1
    80001174:	00078513          	mv	a0,a5
    __asm__ volatile("ecall");
    80001178:	00000073          	ecall
    __asm__ volatile ("mv %[val], a0" : [val] "=r"(a0));
    8000117c:	00050793          	mv	a5,a0
    80001180:	fef43423          	sd	a5,-24(s0)
    return a0;
    80001184:	fe843503          	ld	a0,-24(s0)

    abi_invoke();

    void *ret = (void *) Riscv::r_a0();
    return ret;
}
    80001188:	01813403          	ld	s0,24(sp)
    8000118c:	02010113          	addi	sp,sp,32
    80001190:	00008067          	ret
    if (size == 0) return nullptr;
    80001194:	00000513          	li	a0,0
}
    80001198:	00008067          	ret

000000008000119c <mem_free>:

int mem_free(void *ptr) {
    if (!ptr) { return 0; }
    8000119c:	04050063          	beqz	a0,800011dc <mem_free+0x40>
int mem_free(void *ptr) {
    800011a0:	fe010113          	addi	sp,sp,-32
    800011a4:	00813c23          	sd	s0,24(sp)
    800011a8:	02010413          	addi	s0,sp,32
    __asm__ volatile ("mv a1, %[val]": : [val] "r"(val));
    800011ac:	00050593          	mv	a1,a0
    __asm__ volatile ("mv a0, %[val]": : [val] "r"(val));
    800011b0:	00200793          	li	a5,2
    800011b4:	00078513          	mv	a0,a5
    __asm__ volatile("ecall");
    800011b8:	00000073          	ecall
    __asm__ volatile ("mv %[val], a0" : [val] "=r"(a0));
    800011bc:	00050793          	mv	a5,a0
    800011c0:	fef43423          	sd	a5,-24(s0)
    return a0;
    800011c4:	fe843783          	ld	a5,-24(s0)
    Riscv::w_a1((uint64) ptr);
    Riscv::w_a0(MEM_FREE);

    abi_invoke();

    int ret = (Riscv::r_a0() == 0) ? 0 : -1;
    800011c8:	00079e63          	bnez	a5,800011e4 <mem_free+0x48>
    800011cc:	00000513          	li	a0,0
    return ret;
}
    800011d0:	01813403          	ld	s0,24(sp)
    800011d4:	02010113          	addi	sp,sp,32
    800011d8:	00008067          	ret
    if (!ptr) { return 0; }
    800011dc:	00000513          	li	a0,0
}
    800011e0:	00008067          	ret
    int ret = (Riscv::r_a0() == 0) ? 0 : -1;
    800011e4:	fff00513          	li	a0,-1
    800011e8:	fe9ff06f          	j	800011d0 <mem_free+0x34>

00000000800011ec <thread_create>:

int thread_create(thread_t *handle, void(*start_routine)(void *), void *arg) {
    if (!handle) { return 0; }
    800011ec:	08050863          	beqz	a0,8000127c <thread_create+0x90>
int thread_create(thread_t *handle, void(*start_routine)(void *), void *arg) {
    800011f0:	fc010113          	addi	sp,sp,-64
    800011f4:	02113c23          	sd	ra,56(sp)
    800011f8:	02813823          	sd	s0,48(sp)
    800011fc:	02913423          	sd	s1,40(sp)
    80001200:	03213023          	sd	s2,32(sp)
    80001204:	01313c23          	sd	s3,24(sp)
    80001208:	04010413          	addi	s0,sp,64
    8000120c:	00050493          	mv	s1,a0
    80001210:	00058913          	mv	s2,a1
    80001214:	00060993          	mv	s3,a2

    uint64 *stack;
    if (start_routine != nullptr)
    80001218:	04058e63          	beqz	a1,80001274 <thread_create+0x88>
        stack = new uint64[TCB::getSTACK_SIZE()];
    8000121c:	00008537          	lui	a0,0x8
    80001220:	00001097          	auipc	ra,0x1
    80001224:	c0c080e7          	jalr	-1012(ra) # 80001e2c <_Znam>
            );
    return a4;
}

inline void Riscv::w_a4(uint64 val) {
    __asm__ volatile ("mv a4, %[val]": : [val] "r"(val));
    80001228:	00050713          	mv	a4,a0
    __asm__ volatile ("mv a3, %[val]": : [val] "r"(val));
    8000122c:	00098693          	mv	a3,s3
    __asm__ volatile ("mv a2, %[val]": : [val] "r"(val));
    80001230:	00090613          	mv	a2,s2
    __asm__ volatile ("mv a1, %[val]": : [val] "r"(val));
    80001234:	00048593          	mv	a1,s1
    __asm__ volatile ("mv a0, %[val]": : [val] "r"(val));
    80001238:	01100793          	li	a5,17
    8000123c:	00078513          	mv	a0,a5
    __asm__ volatile("ecall");
    80001240:	00000073          	ecall
    __asm__ volatile ("mv %[val], a0" : [val] "=r"(a0));
    80001244:	00050793          	mv	a5,a0
    80001248:	fcf43423          	sd	a5,-56(s0)
    return a0;
    8000124c:	fc843783          	ld	a5,-56(s0)
    Riscv::w_a1((uint64) handle);
    Riscv::w_a0(THREAD_CREATE);

    abi_invoke();

    int ret = (Riscv::r_a0() == 0) ? 0 : -1;
    80001250:	02079a63          	bnez	a5,80001284 <thread_create+0x98>
    80001254:	00000513          	li	a0,0
    return ret;
}
    80001258:	03813083          	ld	ra,56(sp)
    8000125c:	03013403          	ld	s0,48(sp)
    80001260:	02813483          	ld	s1,40(sp)
    80001264:	02013903          	ld	s2,32(sp)
    80001268:	01813983          	ld	s3,24(sp)
    8000126c:	04010113          	addi	sp,sp,64
    80001270:	00008067          	ret
    else stack = nullptr;
    80001274:	00000513          	li	a0,0
    80001278:	fb1ff06f          	j	80001228 <thread_create+0x3c>
    if (!handle) { return 0; }
    8000127c:	00000513          	li	a0,0
}
    80001280:	00008067          	ret
    int ret = (Riscv::r_a0() == 0) ? 0 : -1;
    80001284:	fff00513          	li	a0,-1
    80001288:	fd1ff06f          	j	80001258 <thread_create+0x6c>

000000008000128c <thread_dispatch>:

void thread_dispatch() {
    8000128c:	ff010113          	addi	sp,sp,-16
    80001290:	00813423          	sd	s0,8(sp)
    80001294:	01010413          	addi	s0,sp,16
    __asm__ volatile ("mv a0, %[val]": : [val] "r"(val));
    80001298:	01300793          	li	a5,19
    8000129c:	00078513          	mv	a0,a5
    __asm__ volatile("ecall");
    800012a0:	00000073          	ecall

    Riscv::w_a0(THREAD_DISPATCH);

    abi_invoke();
}
    800012a4:	00813403          	ld	s0,8(sp)
    800012a8:	01010113          	addi	sp,sp,16
    800012ac:	00008067          	ret

00000000800012b0 <thread_exit>:

int thread_exit() {
    800012b0:	fe010113          	addi	sp,sp,-32
    800012b4:	00813c23          	sd	s0,24(sp)
    800012b8:	02010413          	addi	s0,sp,32
    800012bc:	01200793          	li	a5,18
    800012c0:	00078513          	mv	a0,a5
    __asm__ volatile("ecall");
    800012c4:	00000073          	ecall
    __asm__ volatile ("mv %[val], a0" : [val] "=r"(a0));
    800012c8:	00050793          	mv	a5,a0
    800012cc:	fef43023          	sd	a5,-32(s0)
    return a0;
    800012d0:	fe043783          	ld	a5,-32(s0)

    Riscv::w_a0(THREAD_EXIT);

    abi_invoke();

    uint64 volatile ret = Riscv::r_a0();
    800012d4:	fef43423          	sd	a5,-24(s0)
    return (int) ret;
    800012d8:	fe843503          	ld	a0,-24(s0)
}
    800012dc:	0005051b          	sext.w	a0,a0
    800012e0:	01813403          	ld	s0,24(sp)
    800012e4:	02010113          	addi	sp,sp,32
    800012e8:	00008067          	ret

00000000800012ec <sem_open>:

int sem_open(sem_t *handle, unsigned init) {
    if (!handle) { return 0; }
    800012ec:	04050863          	beqz	a0,8000133c <sem_open+0x50>
int sem_open(sem_t *handle, unsigned init) {
    800012f0:	fe010113          	addi	sp,sp,-32
    800012f4:	00813c23          	sd	s0,24(sp)
    800012f8:	02010413          	addi	s0,sp,32

    Riscv::w_a2((uint64) init);
    800012fc:	02059593          	slli	a1,a1,0x20
    80001300:	0205d593          	srli	a1,a1,0x20
    __asm__ volatile ("mv a2, %[val]": : [val] "r"(val));
    80001304:	00058613          	mv	a2,a1
    __asm__ volatile ("mv a1, %[val]": : [val] "r"(val));
    80001308:	00050593          	mv	a1,a0
    __asm__ volatile ("mv a0, %[val]": : [val] "r"(val));
    8000130c:	02100793          	li	a5,33
    80001310:	00078513          	mv	a0,a5
    __asm__ volatile("ecall");
    80001314:	00000073          	ecall
    __asm__ volatile ("mv %[val], a0" : [val] "=r"(a0));
    80001318:	00050793          	mv	a5,a0
    8000131c:	fef43023          	sd	a5,-32(s0)
    return a0;
    80001320:	fe043783          	ld	a5,-32(s0)
    Riscv::w_a1((uint64) handle);
    Riscv::w_a0(SEM_OPEN);

    abi_invoke();

    uint64 volatile ret = Riscv::r_a0();
    80001324:	fef43423          	sd	a5,-24(s0)
    //  printStr("Kreiran sem\n");

    return (int) ret;
    80001328:	fe843503          	ld	a0,-24(s0)
    8000132c:	0005051b          	sext.w	a0,a0
}
    80001330:	01813403          	ld	s0,24(sp)
    80001334:	02010113          	addi	sp,sp,32
    80001338:	00008067          	ret
    if (!handle) { return 0; }
    8000133c:	00000513          	li	a0,0
}
    80001340:	00008067          	ret

0000000080001344 <sem_close>:

int sem_close(sem_t handle) {
    if (!handle) { return 0; }
    80001344:	04050263          	beqz	a0,80001388 <sem_close+0x44>
int sem_close(sem_t handle) {
    80001348:	fe010113          	addi	sp,sp,-32
    8000134c:	00813c23          	sd	s0,24(sp)
    80001350:	02010413          	addi	s0,sp,32
    __asm__ volatile ("mv a1, %[val]": : [val] "r"(val));
    80001354:	00050593          	mv	a1,a0
    __asm__ volatile ("mv a0, %[val]": : [val] "r"(val));
    80001358:	02200793          	li	a5,34
    8000135c:	00078513          	mv	a0,a5
    __asm__ volatile("ecall");
    80001360:	00000073          	ecall
    __asm__ volatile ("mv %[val], a0" : [val] "=r"(a0));
    80001364:	00050793          	mv	a5,a0
    80001368:	fef43023          	sd	a5,-32(s0)
    return a0;
    8000136c:	fe043783          	ld	a5,-32(s0)
    Riscv::w_a1((uint64) handle);
    Riscv::w_a0(SEM_CLOSE);

    abi_invoke();

    uint64 volatile ret = Riscv::r_a0();
    80001370:	fef43423          	sd	a5,-24(s0)
    // printStr("Zatvoren sem\n");
    return (int) ret;
    80001374:	fe843503          	ld	a0,-24(s0)
    80001378:	0005051b          	sext.w	a0,a0
}
    8000137c:	01813403          	ld	s0,24(sp)
    80001380:	02010113          	addi	sp,sp,32
    80001384:	00008067          	ret
    if (!handle) { return 0; }
    80001388:	00000513          	li	a0,0
}
    8000138c:	00008067          	ret

0000000080001390 <sem_wait>:

int sem_wait(sem_t id) {
    if (!id) { return 0; }
    80001390:	04050263          	beqz	a0,800013d4 <sem_wait+0x44>
int sem_wait(sem_t id) {
    80001394:	fe010113          	addi	sp,sp,-32
    80001398:	00813c23          	sd	s0,24(sp)
    8000139c:	02010413          	addi	s0,sp,32
    __asm__ volatile ("mv a1, %[val]": : [val] "r"(val));
    800013a0:	00050593          	mv	a1,a0
    __asm__ volatile ("mv a0, %[val]": : [val] "r"(val));
    800013a4:	02300793          	li	a5,35
    800013a8:	00078513          	mv	a0,a5
    __asm__ volatile("ecall");
    800013ac:	00000073          	ecall
    __asm__ volatile ("mv %[val], a0" : [val] "=r"(a0));
    800013b0:	00050793          	mv	a5,a0
    800013b4:	fef43023          	sd	a5,-32(s0)
    return a0;
    800013b8:	fe043783          	ld	a5,-32(s0)
    Riscv::w_a1((uint64) id);
    Riscv::w_a0(SEM_WAIT);

    abi_invoke();

    uint64 volatile ret = Riscv::r_a0();
    800013bc:	fef43423          	sd	a5,-24(s0)
    //printStr("wait sem\n");
    return (int) ret;
    800013c0:	fe843503          	ld	a0,-24(s0)
    800013c4:	0005051b          	sext.w	a0,a0

}
    800013c8:	01813403          	ld	s0,24(sp)
    800013cc:	02010113          	addi	sp,sp,32
    800013d0:	00008067          	ret
    if (!id) { return 0; }
    800013d4:	00000513          	li	a0,0
}
    800013d8:	00008067          	ret

00000000800013dc <sem_signal>:

int sem_signal(sem_t id) {
    if (!id) { return 0; }
    800013dc:	04050263          	beqz	a0,80001420 <sem_signal+0x44>
int sem_signal(sem_t id) {
    800013e0:	fe010113          	addi	sp,sp,-32
    800013e4:	00813c23          	sd	s0,24(sp)
    800013e8:	02010413          	addi	s0,sp,32
    __asm__ volatile ("mv a1, %[val]": : [val] "r"(val));
    800013ec:	00050593          	mv	a1,a0
    __asm__ volatile ("mv a0, %[val]": : [val] "r"(val));
    800013f0:	02400793          	li	a5,36
    800013f4:	00078513          	mv	a0,a5
    __asm__ volatile("ecall");
    800013f8:	00000073          	ecall
    __asm__ volatile ("mv %[val], a0" : [val] "=r"(a0));
    800013fc:	00050793          	mv	a5,a0
    80001400:	fef43023          	sd	a5,-32(s0)
    return a0;
    80001404:	fe043783          	ld	a5,-32(s0)
    Riscv::w_a1((uint64) id);
    Riscv::w_a0(SEM_SIGNAL);

    abi_invoke();

    uint64 volatile ret = Riscv::r_a0();
    80001408:	fef43423          	sd	a5,-24(s0)
    //   printStr("signal sem\n");
    return (int) ret;
    8000140c:	fe843503          	ld	a0,-24(s0)
    80001410:	0005051b          	sext.w	a0,a0
}
    80001414:	01813403          	ld	s0,24(sp)
    80001418:	02010113          	addi	sp,sp,32
    8000141c:	00008067          	ret
    if (!id) { return 0; }
    80001420:	00000513          	li	a0,0
}
    80001424:	00008067          	ret

0000000080001428 <changeSysRegime>:

void changeSysRegime() {
    80001428:	ff010113          	addi	sp,sp,-16
    8000142c:	00813423          	sd	s0,8(sp)
    80001430:	01010413          	addi	s0,sp,16
    __asm__ volatile ("mv a0, %[val]": : [val] "r"(val));
    80001434:	00500793          	li	a5,5
    80001438:	00078513          	mv	a0,a5
    __asm__ volatile("ecall");
    8000143c:	00000073          	ecall

    Riscv::w_a0(CHANGEREGIME);

    abi_invoke();
}
    80001440:	00813403          	ld	s0,8(sp)
    80001444:	01010113          	addi	sp,sp,16
    80001448:	00008067          	ret

000000008000144c <putc>:

void putc(char c) {
    8000144c:	ff010113          	addi	sp,sp,-16
    80001450:	00813423          	sd	s0,8(sp)
    80001454:	01010413          	addi	s0,sp,16
    __asm__ volatile ("mv a1, %[val]": : [val] "r"(val));
    80001458:	00050593          	mv	a1,a0
    __asm__ volatile ("mv a0, %[val]": : [val] "r"(val));
    8000145c:	04200793          	li	a5,66
    80001460:	00078513          	mv	a0,a5
    __asm__ volatile("ecall");
    80001464:	00000073          	ecall
    Riscv::w_a1((uint64) c);
    Riscv::w_a0(PUTC);

    abi_invoke();
}
    80001468:	00813403          	ld	s0,8(sp)
    8000146c:	01010113          	addi	sp,sp,16
    80001470:	00008067          	ret

0000000080001474 <getc>:

char getc() {
    80001474:	fe010113          	addi	sp,sp,-32
    80001478:	00813c23          	sd	s0,24(sp)
    8000147c:	02010413          	addi	s0,sp,32
    80001480:	04100793          	li	a5,65
    80001484:	00078513          	mv	a0,a5
    __asm__ volatile("ecall");
    80001488:	00000073          	ecall
    __asm__ volatile ("mv %[val], a0" : [val] "=r"(a0));
    8000148c:	00050793          	mv	a5,a0
    80001490:	fef43023          	sd	a5,-32(s0)
    return a0;
    80001494:	fe043783          	ld	a5,-32(s0)
    Riscv::w_a0(GETC);

    abi_invoke();

    uint64 volatile ret = Riscv::r_a0();
    80001498:	fef43423          	sd	a5,-24(s0)
    return (char) ret;
    8000149c:	fe843503          	ld	a0,-24(s0)
}
    800014a0:	0ff57513          	andi	a0,a0,255
    800014a4:	01813403          	ld	s0,24(sp)
    800014a8:	02010113          	addi	sp,sp,32
    800014ac:	00008067          	ret

00000000800014b0 <sem_trywait>:





int sem_trywait(sem_t id) {
    800014b0:	ff010113          	addi	sp,sp,-16
    800014b4:	00813423          	sd	s0,8(sp)
    800014b8:	01010413          	addi	s0,sp,16
    return 0;
}
    800014bc:	00000513          	li	a0,0
    800014c0:	00813403          	ld	s0,8(sp)
    800014c4:	01010113          	addi	sp,sp,16
    800014c8:	00008067          	ret

00000000800014cc <time_sleep>:

int time_sleep(time_t) {
    800014cc:	ff010113          	addi	sp,sp,-16
    800014d0:	00813423          	sd	s0,8(sp)
    800014d4:	01010413          	addi	s0,sp,16
    return 0;
}
    800014d8:	00000513          	li	a0,0
    800014dc:	00813403          	ld	s0,8(sp)
    800014e0:	01010113          	addi	sp,sp,16
    800014e4:	00008067          	ret

00000000800014e8 <sem_timedwait>:

int sem_timedwait(
        sem_t id,
        time_t timeout
    800014e8:	ff010113          	addi	sp,sp,-16
    800014ec:	00813423          	sd	s0,8(sp)
    800014f0:	01010413          	addi	s0,sp,16
    800014f4:	00000513          	li	a0,0
    800014f8:	00813403          	ld	s0,8(sp)
    800014fc:	01010113          	addi	sp,sp,16
    80001500:	00008067          	ret

0000000080001504 <_ZL9fibonaccim>:
        }
    }
}

static uint64 fibonacci(uint64 n)
{
    80001504:	fe010113          	addi	sp,sp,-32
    80001508:	00113c23          	sd	ra,24(sp)
    8000150c:	00813823          	sd	s0,16(sp)
    80001510:	00913423          	sd	s1,8(sp)
    80001514:	01213023          	sd	s2,0(sp)
    80001518:	02010413          	addi	s0,sp,32
    8000151c:	00050493          	mv	s1,a0
    if (n == 0 || n == 1) { return n; }
    80001520:	00100793          	li	a5,1
    80001524:	02a7f863          	bgeu	a5,a0,80001554 <_ZL9fibonaccim+0x50>
    if (n % 10 == 0) { thread_dispatch(); }
    80001528:	00a00793          	li	a5,10
    8000152c:	02f577b3          	remu	a5,a0,a5
    80001530:	02078e63          	beqz	a5,8000156c <_ZL9fibonaccim+0x68>
    return fibonacci(n - 1) + fibonacci(n - 2);
    80001534:	fff48513          	addi	a0,s1,-1
    80001538:	00000097          	auipc	ra,0x0
    8000153c:	fcc080e7          	jalr	-52(ra) # 80001504 <_ZL9fibonaccim>
    80001540:	00050913          	mv	s2,a0
    80001544:	ffe48513          	addi	a0,s1,-2
    80001548:	00000097          	auipc	ra,0x0
    8000154c:	fbc080e7          	jalr	-68(ra) # 80001504 <_ZL9fibonaccim>
    80001550:	00a90533          	add	a0,s2,a0
}
    80001554:	01813083          	ld	ra,24(sp)
    80001558:	01013403          	ld	s0,16(sp)
    8000155c:	00813483          	ld	s1,8(sp)
    80001560:	00013903          	ld	s2,0(sp)
    80001564:	02010113          	addi	sp,sp,32
    80001568:	00008067          	ret
    if (n % 10 == 0) { thread_dispatch(); }
    8000156c:	00000097          	auipc	ra,0x0
    80001570:	d20080e7          	jalr	-736(ra) # 8000128c <thread_dispatch>
    80001574:	fc1ff06f          	j	80001534 <_ZL9fibonaccim+0x30>

0000000080001578 <_Z11workerBodyAPv>:
{
    80001578:	fe010113          	addi	sp,sp,-32
    8000157c:	00113c23          	sd	ra,24(sp)
    80001580:	00813823          	sd	s0,16(sp)
    80001584:	00913423          	sd	s1,8(sp)
    80001588:	01213023          	sd	s2,0(sp)
    8000158c:	02010413          	addi	s0,sp,32
    for (uint64 i = 0; i < 10; i++)
    80001590:	00000913          	li	s2,0
    80001594:	0380006f          	j	800015cc <_Z11workerBodyAPv+0x54>
            thread_dispatch();
    80001598:	00000097          	auipc	ra,0x0
    8000159c:	cf4080e7          	jalr	-780(ra) # 8000128c <thread_dispatch>
        for (uint64 j = 0; j < 10000; j++)
    800015a0:	00148493          	addi	s1,s1,1
    800015a4:	000027b7          	lui	a5,0x2
    800015a8:	70f78793          	addi	a5,a5,1807 # 270f <_entry-0x7fffd8f1>
    800015ac:	0097ee63          	bltu	a5,s1,800015c8 <_Z11workerBodyAPv+0x50>
            for (uint64 k = 0; k < 30000; k++)
    800015b0:	00000713          	li	a4,0
    800015b4:	000077b7          	lui	a5,0x7
    800015b8:	52f78793          	addi	a5,a5,1327 # 752f <_entry-0x7fff8ad1>
    800015bc:	fce7eee3          	bltu	a5,a4,80001598 <_Z11workerBodyAPv+0x20>
    800015c0:	00170713          	addi	a4,a4,1
    800015c4:	ff1ff06f          	j	800015b4 <_Z11workerBodyAPv+0x3c>
    for (uint64 i = 0; i < 10; i++)
    800015c8:	00190913          	addi	s2,s2,1
    800015cc:	00900793          	li	a5,9
    800015d0:	0327ec63          	bltu	a5,s2,80001608 <_Z11workerBodyAPv+0x90>
        printString("A: i=");
    800015d4:	00008517          	auipc	a0,0x8
    800015d8:	a4c50513          	addi	a0,a0,-1460 # 80009020 <CONSOLE_STATUS+0x10>
    800015dc:	00004097          	auipc	ra,0x4
    800015e0:	e70080e7          	jalr	-400(ra) # 8000544c <_Z11printStringPKc>
        printInt(i);
    800015e4:	00090513          	mv	a0,s2
    800015e8:	00002097          	auipc	ra,0x2
    800015ec:	884080e7          	jalr	-1916(ra) # 80002e6c <printInt>
        printString("\n");
    800015f0:	00008517          	auipc	a0,0x8
    800015f4:	fd050513          	addi	a0,a0,-48 # 800095c0 <CONSOLE_STATUS+0x5b0>
    800015f8:	00004097          	auipc	ra,0x4
    800015fc:	e54080e7          	jalr	-428(ra) # 8000544c <_Z11printStringPKc>
        for (uint64 j = 0; j < 10000; j++)
    80001600:	00000493          	li	s1,0
    80001604:	fa1ff06f          	j	800015a4 <_Z11workerBodyAPv+0x2c>
}
    80001608:	01813083          	ld	ra,24(sp)
    8000160c:	01013403          	ld	s0,16(sp)
    80001610:	00813483          	ld	s1,8(sp)
    80001614:	00013903          	ld	s2,0(sp)
    80001618:	02010113          	addi	sp,sp,32
    8000161c:	00008067          	ret

0000000080001620 <_Z11workerBodyBPv>:
{
    80001620:	fe010113          	addi	sp,sp,-32
    80001624:	00113c23          	sd	ra,24(sp)
    80001628:	00813823          	sd	s0,16(sp)
    8000162c:	00913423          	sd	s1,8(sp)
    80001630:	01213023          	sd	s2,0(sp)
    80001634:	02010413          	addi	s0,sp,32
    for (uint64 i = 0; i < 16; i++)
    80001638:	00000913          	li	s2,0
    8000163c:	0380006f          	j	80001674 <_Z11workerBodyBPv+0x54>
            thread_dispatch();
    80001640:	00000097          	auipc	ra,0x0
    80001644:	c4c080e7          	jalr	-948(ra) # 8000128c <thread_dispatch>
        for (uint64 j = 0; j < 10000; j++)
    80001648:	00148493          	addi	s1,s1,1
    8000164c:	000027b7          	lui	a5,0x2
    80001650:	70f78793          	addi	a5,a5,1807 # 270f <_entry-0x7fffd8f1>
    80001654:	0097ee63          	bltu	a5,s1,80001670 <_Z11workerBodyBPv+0x50>
            for (uint64 k = 0; k < 30000; k++)
    80001658:	00000713          	li	a4,0
    8000165c:	000077b7          	lui	a5,0x7
    80001660:	52f78793          	addi	a5,a5,1327 # 752f <_entry-0x7fff8ad1>
    80001664:	fce7eee3          	bltu	a5,a4,80001640 <_Z11workerBodyBPv+0x20>
    80001668:	00170713          	addi	a4,a4,1
    8000166c:	ff1ff06f          	j	8000165c <_Z11workerBodyBPv+0x3c>
    for (uint64 i = 0; i < 16; i++)
    80001670:	00190913          	addi	s2,s2,1
    80001674:	00f00793          	li	a5,15
    80001678:	0327ec63          	bltu	a5,s2,800016b0 <_Z11workerBodyBPv+0x90>
        printString("B: i=");
    8000167c:	00008517          	auipc	a0,0x8
    80001680:	9ac50513          	addi	a0,a0,-1620 # 80009028 <CONSOLE_STATUS+0x18>
    80001684:	00004097          	auipc	ra,0x4
    80001688:	dc8080e7          	jalr	-568(ra) # 8000544c <_Z11printStringPKc>
        printInt(i);
    8000168c:	00090513          	mv	a0,s2
    80001690:	00001097          	auipc	ra,0x1
    80001694:	7dc080e7          	jalr	2012(ra) # 80002e6c <printInt>
        printString("\n");
    80001698:	00008517          	auipc	a0,0x8
    8000169c:	f2850513          	addi	a0,a0,-216 # 800095c0 <CONSOLE_STATUS+0x5b0>
    800016a0:	00004097          	auipc	ra,0x4
    800016a4:	dac080e7          	jalr	-596(ra) # 8000544c <_Z11printStringPKc>
        for (uint64 j = 0; j < 10000; j++)
    800016a8:	00000493          	li	s1,0
    800016ac:	fa1ff06f          	j	8000164c <_Z11workerBodyBPv+0x2c>
}
    800016b0:	01813083          	ld	ra,24(sp)
    800016b4:	01013403          	ld	s0,16(sp)
    800016b8:	00813483          	ld	s1,8(sp)
    800016bc:	00013903          	ld	s2,0(sp)
    800016c0:	02010113          	addi	sp,sp,32
    800016c4:	00008067          	ret

00000000800016c8 <_Z11workerBodyCPv>:

void workerBodyC(void* arg)
{
    800016c8:	fe010113          	addi	sp,sp,-32
    800016cc:	00113c23          	sd	ra,24(sp)
    800016d0:	00813823          	sd	s0,16(sp)
    800016d4:	00913423          	sd	s1,8(sp)
    800016d8:	01213023          	sd	s2,0(sp)
    800016dc:	02010413          	addi	s0,sp,32
    uint8 i = 0;
    800016e0:	00000493          	li	s1,0
    800016e4:	0400006f          	j	80001724 <_Z11workerBodyCPv+0x5c>
    for (; i < 3; i++)
    {
        printString("C: i=");
    800016e8:	00008517          	auipc	a0,0x8
    800016ec:	94850513          	addi	a0,a0,-1720 # 80009030 <CONSOLE_STATUS+0x20>
    800016f0:	00004097          	auipc	ra,0x4
    800016f4:	d5c080e7          	jalr	-676(ra) # 8000544c <_Z11printStringPKc>
        printInt(i);
    800016f8:	00000613          	li	a2,0
    800016fc:	00a00593          	li	a1,10
    80001700:	00048513          	mv	a0,s1
    80001704:	00004097          	auipc	ra,0x4
    80001708:	ef8080e7          	jalr	-264(ra) # 800055fc <_Z8printIntiii>
        printString("\n");
    8000170c:	00008517          	auipc	a0,0x8
    80001710:	eb450513          	addi	a0,a0,-332 # 800095c0 <CONSOLE_STATUS+0x5b0>
    80001714:	00004097          	auipc	ra,0x4
    80001718:	d38080e7          	jalr	-712(ra) # 8000544c <_Z11printStringPKc>
    for (; i < 3; i++)
    8000171c:	0014849b          	addiw	s1,s1,1
    80001720:	0ff4f493          	andi	s1,s1,255
    80001724:	00200793          	li	a5,2
    80001728:	fc97f0e3          	bgeu	a5,s1,800016e8 <_Z11workerBodyCPv+0x20>
    }

    printString("C: yield\n");
    8000172c:	00008517          	auipc	a0,0x8
    80001730:	90c50513          	addi	a0,a0,-1780 # 80009038 <CONSOLE_STATUS+0x28>
    80001734:	00004097          	auipc	ra,0x4
    80001738:	d18080e7          	jalr	-744(ra) # 8000544c <_Z11printStringPKc>
    __asm__ ("li t1, 7");
    8000173c:	00700313          	li	t1,7
    thread_dispatch();
    80001740:	00000097          	auipc	ra,0x0
    80001744:	b4c080e7          	jalr	-1204(ra) # 8000128c <thread_dispatch>

    uint64 t1 = 0;
    __asm__ ("mv %[t1], t1" : [t1] "=r"(t1));
    80001748:	00030913          	mv	s2,t1

    printString("C: t1=");
    8000174c:	00008517          	auipc	a0,0x8
    80001750:	8fc50513          	addi	a0,a0,-1796 # 80009048 <CONSOLE_STATUS+0x38>
    80001754:	00004097          	auipc	ra,0x4
    80001758:	cf8080e7          	jalr	-776(ra) # 8000544c <_Z11printStringPKc>
    printInt(t1);
    8000175c:	00090513          	mv	a0,s2
    80001760:	00001097          	auipc	ra,0x1
    80001764:	70c080e7          	jalr	1804(ra) # 80002e6c <printInt>
    printString("\n");
    80001768:	00008517          	auipc	a0,0x8
    8000176c:	e5850513          	addi	a0,a0,-424 # 800095c0 <CONSOLE_STATUS+0x5b0>
    80001770:	00004097          	auipc	ra,0x4
    80001774:	cdc080e7          	jalr	-804(ra) # 8000544c <_Z11printStringPKc>

    uint64 result = fibonacci(12);
    80001778:	00c00513          	li	a0,12
    8000177c:	00000097          	auipc	ra,0x0
    80001780:	d88080e7          	jalr	-632(ra) # 80001504 <_ZL9fibonaccim>
    80001784:	00050913          	mv	s2,a0
    printString("C: fibonaci=");
    80001788:	00008517          	auipc	a0,0x8
    8000178c:	8c850513          	addi	a0,a0,-1848 # 80009050 <CONSOLE_STATUS+0x40>
    80001790:	00004097          	auipc	ra,0x4
    80001794:	cbc080e7          	jalr	-836(ra) # 8000544c <_Z11printStringPKc>
    printInt(result);
    80001798:	00090513          	mv	a0,s2
    8000179c:	00001097          	auipc	ra,0x1
    800017a0:	6d0080e7          	jalr	1744(ra) # 80002e6c <printInt>
    printString("\n");
    800017a4:	00008517          	auipc	a0,0x8
    800017a8:	e1c50513          	addi	a0,a0,-484 # 800095c0 <CONSOLE_STATUS+0x5b0>
    800017ac:	00004097          	auipc	ra,0x4
    800017b0:	ca0080e7          	jalr	-864(ra) # 8000544c <_Z11printStringPKc>
    800017b4:	0400006f          	j	800017f4 <_Z11workerBodyCPv+0x12c>

    for (; i < 6; i++)
    {
        printString("C: i=");
    800017b8:	00008517          	auipc	a0,0x8
    800017bc:	87850513          	addi	a0,a0,-1928 # 80009030 <CONSOLE_STATUS+0x20>
    800017c0:	00004097          	auipc	ra,0x4
    800017c4:	c8c080e7          	jalr	-884(ra) # 8000544c <_Z11printStringPKc>
        printInt(i);
    800017c8:	00000613          	li	a2,0
    800017cc:	00a00593          	li	a1,10
    800017d0:	00048513          	mv	a0,s1
    800017d4:	00004097          	auipc	ra,0x4
    800017d8:	e28080e7          	jalr	-472(ra) # 800055fc <_Z8printIntiii>
        printString("\n");
    800017dc:	00008517          	auipc	a0,0x8
    800017e0:	de450513          	addi	a0,a0,-540 # 800095c0 <CONSOLE_STATUS+0x5b0>
    800017e4:	00004097          	auipc	ra,0x4
    800017e8:	c68080e7          	jalr	-920(ra) # 8000544c <_Z11printStringPKc>
    for (; i < 6; i++)
    800017ec:	0014849b          	addiw	s1,s1,1
    800017f0:	0ff4f493          	andi	s1,s1,255
    800017f4:	00500793          	li	a5,5
    800017f8:	fc97f0e3          	bgeu	a5,s1,800017b8 <_Z11workerBodyCPv+0xf0>
    }
    thread_dispatch();//
    800017fc:	00000097          	auipc	ra,0x0
    80001800:	a90080e7          	jalr	-1392(ra) # 8000128c <thread_dispatch>
}
    80001804:	01813083          	ld	ra,24(sp)
    80001808:	01013403          	ld	s0,16(sp)
    8000180c:	00813483          	ld	s1,8(sp)
    80001810:	00013903          	ld	s2,0(sp)
    80001814:	02010113          	addi	sp,sp,32
    80001818:	00008067          	ret

000000008000181c <_Z11workerBodyDPv>:

void workerBodyD(void* arg)
{
    8000181c:	fe010113          	addi	sp,sp,-32
    80001820:	00113c23          	sd	ra,24(sp)
    80001824:	00813823          	sd	s0,16(sp)
    80001828:	00913423          	sd	s1,8(sp)
    8000182c:	01213023          	sd	s2,0(sp)
    80001830:	02010413          	addi	s0,sp,32
    uint8 i = 10;
    80001834:	00a00493          	li	s1,10
    80001838:	0400006f          	j	80001878 <_Z11workerBodyDPv+0x5c>
    for (; i < 13; i++)
    {
        printString("D: i=");
    8000183c:	00008517          	auipc	a0,0x8
    80001840:	82450513          	addi	a0,a0,-2012 # 80009060 <CONSOLE_STATUS+0x50>
    80001844:	00004097          	auipc	ra,0x4
    80001848:	c08080e7          	jalr	-1016(ra) # 8000544c <_Z11printStringPKc>
        printInt(i);
    8000184c:	00000613          	li	a2,0
    80001850:	00a00593          	li	a1,10
    80001854:	00048513          	mv	a0,s1
    80001858:	00004097          	auipc	ra,0x4
    8000185c:	da4080e7          	jalr	-604(ra) # 800055fc <_Z8printIntiii>
        printString("\n");
    80001860:	00008517          	auipc	a0,0x8
    80001864:	d6050513          	addi	a0,a0,-672 # 800095c0 <CONSOLE_STATUS+0x5b0>
    80001868:	00004097          	auipc	ra,0x4
    8000186c:	be4080e7          	jalr	-1052(ra) # 8000544c <_Z11printStringPKc>
    for (; i < 13; i++)
    80001870:	0014849b          	addiw	s1,s1,1
    80001874:	0ff4f493          	andi	s1,s1,255
    80001878:	00c00793          	li	a5,12
    8000187c:	fc97f0e3          	bgeu	a5,s1,8000183c <_Z11workerBodyDPv+0x20>
    }

    printString("D: yield\n");
    80001880:	00007517          	auipc	a0,0x7
    80001884:	7e850513          	addi	a0,a0,2024 # 80009068 <CONSOLE_STATUS+0x58>
    80001888:	00004097          	auipc	ra,0x4
    8000188c:	bc4080e7          	jalr	-1084(ra) # 8000544c <_Z11printStringPKc>
    __asm__ ("li t1, 5");
    80001890:	00500313          	li	t1,5
    thread_dispatch();
    80001894:	00000097          	auipc	ra,0x0
    80001898:	9f8080e7          	jalr	-1544(ra) # 8000128c <thread_dispatch>

    uint64 result = fibonacci(16);
    8000189c:	01000513          	li	a0,16
    800018a0:	00000097          	auipc	ra,0x0
    800018a4:	c64080e7          	jalr	-924(ra) # 80001504 <_ZL9fibonaccim>
    800018a8:	00050913          	mv	s2,a0
    printString("D: fibonaci=");
    800018ac:	00007517          	auipc	a0,0x7
    800018b0:	7cc50513          	addi	a0,a0,1996 # 80009078 <CONSOLE_STATUS+0x68>
    800018b4:	00004097          	auipc	ra,0x4
    800018b8:	b98080e7          	jalr	-1128(ra) # 8000544c <_Z11printStringPKc>
    printInt(result);
    800018bc:	00090513          	mv	a0,s2
    800018c0:	00001097          	auipc	ra,0x1
    800018c4:	5ac080e7          	jalr	1452(ra) # 80002e6c <printInt>
    printString("\n");
    800018c8:	00008517          	auipc	a0,0x8
    800018cc:	cf850513          	addi	a0,a0,-776 # 800095c0 <CONSOLE_STATUS+0x5b0>
    800018d0:	00004097          	auipc	ra,0x4
    800018d4:	b7c080e7          	jalr	-1156(ra) # 8000544c <_Z11printStringPKc>
    800018d8:	0400006f          	j	80001918 <_Z11workerBodyDPv+0xfc>

    for (; i < 16; i++)
    {
        printString("D: i=");
    800018dc:	00007517          	auipc	a0,0x7
    800018e0:	78450513          	addi	a0,a0,1924 # 80009060 <CONSOLE_STATUS+0x50>
    800018e4:	00004097          	auipc	ra,0x4
    800018e8:	b68080e7          	jalr	-1176(ra) # 8000544c <_Z11printStringPKc>
        printInt(i);
    800018ec:	00000613          	li	a2,0
    800018f0:	00a00593          	li	a1,10
    800018f4:	00048513          	mv	a0,s1
    800018f8:	00004097          	auipc	ra,0x4
    800018fc:	d04080e7          	jalr	-764(ra) # 800055fc <_Z8printIntiii>
        printString("\n");
    80001900:	00008517          	auipc	a0,0x8
    80001904:	cc050513          	addi	a0,a0,-832 # 800095c0 <CONSOLE_STATUS+0x5b0>
    80001908:	00004097          	auipc	ra,0x4
    8000190c:	b44080e7          	jalr	-1212(ra) # 8000544c <_Z11printStringPKc>
    for (; i < 16; i++)
    80001910:	0014849b          	addiw	s1,s1,1
    80001914:	0ff4f493          	andi	s1,s1,255
    80001918:	00f00793          	li	a5,15
    8000191c:	fc97f0e3          	bgeu	a5,s1,800018dc <_Z11workerBodyDPv+0xc0>
    }
    thread_dispatch();//
    80001920:	00000097          	auipc	ra,0x0
    80001924:	96c080e7          	jalr	-1684(ra) # 8000128c <thread_dispatch>
    80001928:	01813083          	ld	ra,24(sp)
    8000192c:	01013403          	ld	s0,16(sp)
    80001930:	00813483          	ld	s1,8(sp)
    80001934:	00013903          	ld	s2,0(sp)
    80001938:	02010113          	addi	sp,sp,32
    8000193c:	00008067          	ret

0000000080001940 <_Z8userFuncPv>:

#include "syscall_cpp.hpp"

extern void userMain();

void userFunc(void *a) {
    80001940:	fe010113          	addi	sp,sp,-32
    80001944:	00113c23          	sd	ra,24(sp)
    80001948:	00813823          	sd	s0,16(sp)
    8000194c:	00913423          	sd	s1,8(sp)
    80001950:	02010413          	addi	s0,sp,32
    80001954:	00050493          	mv	s1,a0

    Semaphore *sem = (Semaphore *) a;
    userMain();
    80001958:	00004097          	auipc	ra,0x4
    8000195c:	1bc080e7          	jalr	444(ra) # 80005b14 <_Z8userMainv>
    sem->signal();
    80001960:	00048513          	mv	a0,s1
    80001964:	00000097          	auipc	ra,0x0
    80001968:	71c080e7          	jalr	1820(ra) # 80002080 <_ZN9Semaphore6signalEv>
}
    8000196c:	01813083          	ld	ra,24(sp)
    80001970:	01013403          	ld	s0,16(sp)
    80001974:	00813483          	ld	s1,8(sp)
    80001978:	02010113          	addi	sp,sp,32
    8000197c:	00008067          	ret

0000000080001980 <main>:
#include "../h/tcb.hpp"
#include "../h/riscv.hpp"
#include "../h/syscall_cpp.hpp"
//#include "../h/MemoryAllocator.hpp"

int main() {
    80001980:	fe010113          	addi	sp,sp,-32
    80001984:	00113c23          	sd	ra,24(sp)
    80001988:	00813823          	sd	s0,16(sp)
    8000198c:	00913423          	sd	s1,8(sp)
    80001990:	01213023          	sd	s2,0(sp)
    80001994:	02010413          	addi	s0,sp,32

    //MemoryAllocator::initialize();

    Riscv::w_stvec((uint64) &Riscv::supervisorTrap);
    80001998:	0000a797          	auipc	a5,0xa
    8000199c:	f507b783          	ld	a5,-176(a5) # 8000b8e8 <_GLOBAL_OFFSET_TABLE_+0x10>
    __asm__ volatile ("csrr %[stvec], stvec" : [stvec] "=r"(stvec));
    return stvec;
}

inline void Riscv::w_stvec(uint64 stvec) {
    __asm__ volatile ("csrw stvec, %[stvec]" : : [stvec] "r"(stvec));
    800019a0:	10579073          	csrw	stvec,a5
    //Riscv::ms_sstatus(Riscv::SSTATUS_SIE);

    Scheduler::idle = TCB::createThread(Scheduler::idleFunc, nullptr, new uint64[DEFAULT_STACK_SIZE]);
    800019a4:	00008537          	lui	a0,0x8
    800019a8:	00000097          	auipc	ra,0x0
    800019ac:	484080e7          	jalr	1156(ra) # 80001e2c <_Znam>
    800019b0:	00050613          	mv	a2,a0
    800019b4:	00000593          	li	a1,0
    800019b8:	0000a517          	auipc	a0,0xa
    800019bc:	f4853503          	ld	a0,-184(a0) # 8000b900 <_GLOBAL_OFFSET_TABLE_+0x28>
    800019c0:	00000097          	auipc	ra,0x0
    800019c4:	1d4080e7          	jalr	468(ra) # 80001b94 <_ZN3TCB12createThreadEPFvPvES0_S0_>
    800019c8:	0000a797          	auipc	a5,0xa
    800019cc:	f487b783          	ld	a5,-184(a5) # 8000b910 <_GLOBAL_OFFSET_TABLE_+0x38>
    800019d0:	00a7b023          	sd	a0,0(a5)
    //(uint64 *) mem_alloc(sizeof(uint64) * DEFAULT_STACK_SIZE));
    TCB::maintcb = TCB::createThread(nullptr, nullptr, nullptr);
    800019d4:	00000613          	li	a2,0
    800019d8:	00000593          	li	a1,0
    800019dc:	00000513          	li	a0,0
    800019e0:	00000097          	auipc	ra,0x0
    800019e4:	1b4080e7          	jalr	436(ra) # 80001b94 <_ZN3TCB12createThreadEPFvPvES0_S0_>
    800019e8:	0000a797          	auipc	a5,0xa
    800019ec:	f107b783          	ld	a5,-240(a5) # 8000b8f8 <_GLOBAL_OFFSET_TABLE_+0x20>
    800019f0:	00a7b023          	sd	a0,0(a5)
    TCB::running = TCB::maintcb;
    800019f4:	0000a797          	auipc	a5,0xa
    800019f8:	f247b783          	ld	a5,-220(a5) # 8000b918 <_GLOBAL_OFFSET_TABLE_+0x40>
    800019fc:	00a7b023          	sd	a0,0(a5)
    changeSysRegime();
    80001a00:	00000097          	auipc	ra,0x0
    80001a04:	a28080e7          	jalr	-1496(ra) # 80001428 <changeSysRegime>

    printString("\nstart ok\n");
    80001a08:	00007517          	auipc	a0,0x7
    80001a0c:	68050513          	addi	a0,a0,1664 # 80009088 <CONSOLE_STATUS+0x78>
    80001a10:	00004097          	auipc	ra,0x4
    80001a14:	a3c080e7          	jalr	-1476(ra) # 8000544c <_Z11printStringPKc>

    Semaphore *sem = new Semaphore(0);
    80001a18:	01800513          	li	a0,24
    80001a1c:	00000097          	auipc	ra,0x0
    80001a20:	3e8080e7          	jalr	1000(ra) # 80001e04 <_Znwm>
    80001a24:	00050913          	mv	s2,a0
    80001a28:	00000593          	li	a1,0
    80001a2c:	00000097          	auipc	ra,0x0
    80001a30:	5ec080e7          	jalr	1516(ra) # 80002018 <_ZN9SemaphoreC1Ej>

    Thread *userT = new Thread(userFunc, sem);
    80001a34:	02000513          	li	a0,32
    80001a38:	00000097          	auipc	ra,0x0
    80001a3c:	3cc080e7          	jalr	972(ra) # 80001e04 <_Znwm>
    80001a40:	00050493          	mv	s1,a0
    80001a44:	00090613          	mv	a2,s2
    80001a48:	00000597          	auipc	a1,0x0
    80001a4c:	ef858593          	addi	a1,a1,-264 # 80001940 <_Z8userFuncPv>
    80001a50:	00000097          	auipc	ra,0x0
    80001a54:	51c080e7          	jalr	1308(ra) # 80001f6c <_ZN6ThreadC1EPFvPvES0_>
    userT->start();
    80001a58:	00048513          	mv	a0,s1
    80001a5c:	00000097          	auipc	ra,0x0
    80001a60:	540080e7          	jalr	1344(ra) # 80001f9c <_ZN6Thread5startEv>
    //TCB  *userT;
    //thread_create(&userT, userFunc, null);// reinterpret_cast<void (*)(void *)>(userMain)
    //thread_dispatch();

    printString("main ce da ceka\n");
    80001a64:	00007517          	auipc	a0,0x7
    80001a68:	63450513          	addi	a0,a0,1588 # 80009098 <CONSOLE_STATUS+0x88>
    80001a6c:	00004097          	auipc	ra,0x4
    80001a70:	9e0080e7          	jalr	-1568(ra) # 8000544c <_Z11printStringPKc>
    sem->wait();
    80001a74:	00090513          	mv	a0,s2
    80001a78:	00000097          	auipc	ra,0x0
    80001a7c:	5dc080e7          	jalr	1500(ra) # 80002054 <_ZN9Semaphore4waitEv>

    //Riscv::mc_sstatus(Riscv::SSTATUS_SIE);
    printString("ciscenje za kraj\n");
    80001a80:	00007517          	auipc	a0,0x7
    80001a84:	63050513          	addi	a0,a0,1584 # 800090b0 <CONSOLE_STATUS+0xa0>
    80001a88:	00004097          	auipc	ra,0x4
    80001a8c:	9c4080e7          	jalr	-1596(ra) # 8000544c <_Z11printStringPKc>

    Scheduler::cleanUp();
    80001a90:	00001097          	auipc	ra,0x1
    80001a94:	f10080e7          	jalr	-240(ra) # 800029a0 <_ZN9Scheduler7cleanUpEv>
    delete userT;
    80001a98:	00048a63          	beqz	s1,80001aac <main+0x12c>
    80001a9c:	0004b783          	ld	a5,0(s1)
    80001aa0:	0087b783          	ld	a5,8(a5)
    80001aa4:	00048513          	mv	a0,s1
    80001aa8:	000780e7          	jalr	a5
    delete TCB::maintcb;
    80001aac:	0000a797          	auipc	a5,0xa
    80001ab0:	e4c7b783          	ld	a5,-436(a5) # 8000b8f8 <_GLOBAL_OFFSET_TABLE_+0x20>
    80001ab4:	0007b483          	ld	s1,0(a5)
    80001ab8:	02048663          	beqz	s1,80001ae4 <main+0x164>
};

class TCB {
public:
    ~TCB() {
        Scheduler::remove(this);
    80001abc:	00048513          	mv	a0,s1
    80001ac0:	00001097          	auipc	ra,0x1
    80001ac4:	e54080e7          	jalr	-428(ra) # 80002914 <_ZN9Scheduler6removeEP3TCB>
        delete[] stack;
    80001ac8:	0384b503          	ld	a0,56(s1)
    80001acc:	00050663          	beqz	a0,80001ad8 <main+0x158>
    80001ad0:	00000097          	auipc	ra,0x0
    80001ad4:	414080e7          	jalr	1044(ra) # 80001ee4 <_ZdaPv>
    80001ad8:	00048513          	mv	a0,s1
    80001adc:	00000097          	auipc	ra,0x0
    80001ae0:	378080e7          	jalr	888(ra) # 80001e54 <_ZdlPv>

    printString("main() finished\n");
    80001ae4:	00007517          	auipc	a0,0x7
    80001ae8:	5e450513          	addi	a0,a0,1508 # 800090c8 <CONSOLE_STATUS+0xb8>
    80001aec:	00004097          	auipc	ra,0x4
    80001af0:	960080e7          	jalr	-1696(ra) # 8000544c <_Z11printStringPKc>

    Riscv::terminateRiscv();
    80001af4:	00001097          	auipc	ra,0x1
    80001af8:	aa8080e7          	jalr	-1368(ra) # 8000259c <_ZN5Riscv14terminateRiscvEv>

    return 0;
    80001afc:	00000513          	li	a0,0
    80001b00:	01813083          	ld	ra,24(sp)
    80001b04:	01013403          	ld	s0,16(sp)
    80001b08:	00813483          	ld	s1,8(sp)
    80001b0c:	00013903          	ld	s2,0(sp)
    80001b10:	02010113          	addi	sp,sp,32
    80001b14:	00008067          	ret
    80001b18:	00050493          	mv	s1,a0
    Semaphore *sem = new Semaphore(0);
    80001b1c:	00090513          	mv	a0,s2
    80001b20:	00000097          	auipc	ra,0x0
    80001b24:	334080e7          	jalr	820(ra) # 80001e54 <_ZdlPv>
    80001b28:	00048513          	mv	a0,s1
    80001b2c:	0000b097          	auipc	ra,0xb
    80001b30:	fac080e7          	jalr	-84(ra) # 8000cad8 <_Unwind_Resume>
    80001b34:	00050913          	mv	s2,a0
    Thread *userT = new Thread(userFunc, sem);
    80001b38:	00048513          	mv	a0,s1
    80001b3c:	00000097          	auipc	ra,0x0
    80001b40:	318080e7          	jalr	792(ra) # 80001e54 <_ZdlPv>
    80001b44:	00090513          	mv	a0,s2
    80001b48:	0000b097          	auipc	ra,0xb
    80001b4c:	f90080e7          	jalr	-112(ra) # 8000cad8 <_Unwind_Resume>

0000000080001b50 <_ZN3TCB13threadWrapperEv>:
    running->setState(State::RUNNING);

    TCB::contextSwitch(&old->context, &running->context);
}

void TCB::threadWrapper() {
    80001b50:	ff010113          	addi	sp,sp,-16
    80001b54:	00113423          	sd	ra,8(sp)
    80001b58:	00813023          	sd	s0,0(sp)
    80001b5c:	01010413          	addi	s0,sp,16

    Riscv::popSppSpie();
    80001b60:	00000097          	auipc	ra,0x0
    80001b64:	634080e7          	jalr	1588(ra) # 80002194 <_ZN5Riscv10popSppSpieEv>

    running->body(running->arg);
    80001b68:	0000a797          	auipc	a5,0xa
    80001b6c:	e087b783          	ld	a5,-504(a5) # 8000b970 <_ZN3TCB7runningE>
    80001b70:	0307b703          	ld	a4,48(a5)
    80001b74:	0087b503          	ld	a0,8(a5)
    80001b78:	000700e7          	jalr	a4
    //prvo je skloni iz svega gde bi mogla biti

    thread_exit();
    80001b7c:	fffff097          	auipc	ra,0xfffff
    80001b80:	734080e7          	jalr	1844(ra) # 800012b0 <thread_exit>
}
    80001b84:	00813083          	ld	ra,8(sp)
    80001b88:	00013403          	ld	s0,0(sp)
    80001b8c:	01010113          	addi	sp,sp,16
    80001b90:	00008067          	ret

0000000080001b94 <_ZN3TCB12createThreadEPFvPvES0_S0_>:
TCB* TCB::createThread(Body body, void *arg, void* stack) {
    80001b94:	fd010113          	addi	sp,sp,-48
    80001b98:	02113423          	sd	ra,40(sp)
    80001b9c:	02813023          	sd	s0,32(sp)
    80001ba0:	00913c23          	sd	s1,24(sp)
    80001ba4:	01213823          	sd	s2,16(sp)
    80001ba8:	01313423          	sd	s3,8(sp)
    80001bac:	01413023          	sd	s4,0(sp)
    80001bb0:	03010413          	addi	s0,sp,48
    80001bb4:	00050913          	mv	s2,a0
    80001bb8:	00058a13          	mv	s4,a1
    80001bbc:	00060993          	mv	s3,a2
    return new TCB(body, arg, stack, TIME_SLICE);
    80001bc0:	05800513          	li	a0,88
    80001bc4:	00000097          	auipc	ra,0x0
    80001bc8:	240080e7          	jalr	576(ra) # 80001e04 <_Znwm>
    80001bcc:	00050493          	mv	s1,a0
    static TCB *maintcb;

private:

    explicit TCB(Body body, void *arg, void *s, uint64 timeSlice) {
        this->arg = arg;
    80001bd0:	01453423          	sd	s4,8(a0)
        this->body = body;
    80001bd4:	03253823          	sd	s2,48(a0)
        this->stack = (uint64 *) s;
    80001bd8:	03353c23          	sd	s3,56(a0)
        this->context = {
                body != nullptr ? (uint64) &threadWrapper : 0,
    80001bdc:	06090c63          	beqz	s2,80001c54 <_ZN3TCB12createThreadEPFvPvES0_S0_+0xc0>
    80001be0:	00000797          	auipc	a5,0x0
    80001be4:	f7078793          	addi	a5,a5,-144 # 80001b50 <_ZN3TCB13threadWrapperEv>
                stack != nullptr ? (uint64) &stack[STACK_SIZE] : 0
    80001be8:	06098a63          	beqz	s3,80001c5c <_ZN3TCB12createThreadEPFvPvES0_S0_+0xc8>
    80001bec:	00008637          	lui	a2,0x8
    80001bf0:	00c989b3          	add	s3,s3,a2
        this->context = {
    80001bf4:	04f4b023          	sd	a5,64(s1)
    80001bf8:	0534b423          	sd	s3,72(s1)
        };
        this->timeSlice = timeSlice;
    80001bfc:	00200793          	li	a5,2
    80001c00:	04f4b823          	sd	a5,80(s1)
        this->next = nullptr;
    80001c04:	0004bc23          	sd	zero,24(s1)
        this->nextBlocked = nullptr;
    80001c08:	0204b023          	sd	zero,32(s1)
        this->holder = nullptr;
    80001c0c:	0204b423          	sd	zero,40(s1)
        id = globalId++;
    80001c10:	0000a717          	auipc	a4,0xa
    80001c14:	d6070713          	addi	a4,a4,-672 # 8000b970 <_ZN3TCB7runningE>
    80001c18:	00872783          	lw	a5,8(a4)
    80001c1c:	0017869b          	addiw	a3,a5,1
    80001c20:	00d72423          	sw	a3,8(a4)
    80001c24:	00f4a023          	sw	a5,0(s1)
        sysRegime = false;
    80001c28:	00048823          	sb	zero,16(s1)
        //this->finished = false;
        currentThreadState = State::CREATED;
    80001c2c:	0004a223          	sw	zero,4(s1)
        if (body == nullptr) { currentThreadState = State::RUNNING; }
    80001c30:	02090a63          	beqz	s2,80001c64 <_ZN3TCB12createThreadEPFvPvES0_S0_+0xd0>
        if (body != nullptr && body != &Scheduler::idleFunc) { Scheduler::put(this); }
    80001c34:	04090c63          	beqz	s2,80001c8c <_ZN3TCB12createThreadEPFvPvES0_S0_+0xf8>
    80001c38:	0000a797          	auipc	a5,0xa
    80001c3c:	cc87b783          	ld	a5,-824(a5) # 8000b900 <_GLOBAL_OFFSET_TABLE_+0x28>
    80001c40:	04f90663          	beq	s2,a5,80001c8c <_ZN3TCB12createThreadEPFvPvES0_S0_+0xf8>
    80001c44:	00048513          	mv	a0,s1
    80001c48:	00001097          	auipc	ra,0x1
    80001c4c:	c6c080e7          	jalr	-916(ra) # 800028b4 <_ZN9Scheduler3putEP3TCB>
    80001c50:	03c0006f          	j	80001c8c <_ZN3TCB12createThreadEPFvPvES0_S0_+0xf8>
                body != nullptr ? (uint64) &threadWrapper : 0,
    80001c54:	00000793          	li	a5,0
    80001c58:	f91ff06f          	j	80001be8 <_ZN3TCB12createThreadEPFvPvES0_S0_+0x54>
                stack != nullptr ? (uint64) &stack[STACK_SIZE] : 0
    80001c5c:	00000993          	li	s3,0
    80001c60:	f95ff06f          	j	80001bf4 <_ZN3TCB12createThreadEPFvPvES0_S0_+0x60>
        if (body == nullptr) { currentThreadState = State::RUNNING; }
    80001c64:	00100793          	li	a5,1
    80001c68:	00f4a223          	sw	a5,4(s1)
    80001c6c:	fc9ff06f          	j	80001c34 <_ZN3TCB12createThreadEPFvPvES0_S0_+0xa0>
    80001c70:	00050913          	mv	s2,a0
    80001c74:	00048513          	mv	a0,s1
    80001c78:	00000097          	auipc	ra,0x0
    80001c7c:	1dc080e7          	jalr	476(ra) # 80001e54 <_ZdlPv>
    80001c80:	00090513          	mv	a0,s2
    80001c84:	0000b097          	auipc	ra,0xb
    80001c88:	e54080e7          	jalr	-428(ra) # 8000cad8 <_Unwind_Resume>
}
    80001c8c:	00048513          	mv	a0,s1
    80001c90:	02813083          	ld	ra,40(sp)
    80001c94:	02013403          	ld	s0,32(sp)
    80001c98:	01813483          	ld	s1,24(sp)
    80001c9c:	01013903          	ld	s2,16(sp)
    80001ca0:	00813983          	ld	s3,8(sp)
    80001ca4:	00013a03          	ld	s4,0(sp)
    80001ca8:	03010113          	addi	sp,sp,48
    80001cac:	00008067          	ret

0000000080001cb0 <_ZN3TCB5yieldEv>:
void TCB::yield() {
    80001cb0:	fe010113          	addi	sp,sp,-32
    80001cb4:	00113c23          	sd	ra,24(sp)
    80001cb8:	00813823          	sd	s0,16(sp)
    80001cbc:	00913423          	sd	s1,8(sp)
    80001cc0:	02010413          	addi	s0,sp,32
    TCB *old = running;
    80001cc4:	0000a497          	auipc	s1,0xa
    80001cc8:	cac4b483          	ld	s1,-852(s1) # 8000b970 <_ZN3TCB7runningE>
    bool isFinished() { return currentThreadState == State::FINISHED; }
    80001ccc:	0044a783          	lw	a5,4(s1)
    if (!old->isFinished()&&old->currentThreadState!=State::BLOCKED&&old->currentThreadState!=State::SLEEPING) {
    80001cd0:	00500713          	li	a4,5
    80001cd4:	02e78c63          	beq	a5,a4,80001d0c <_ZN3TCB5yieldEv+0x5c>
    80001cd8:	00300713          	li	a4,3
    80001cdc:	02e78863          	beq	a5,a4,80001d0c <_ZN3TCB5yieldEv+0x5c>
    80001ce0:	00400713          	li	a4,4
    80001ce4:	02e78463          	beq	a5,a4,80001d0c <_ZN3TCB5yieldEv+0x5c>
        if(old!=Scheduler::idle)old->currentThreadState=State::READY;
    80001ce8:	0000a797          	auipc	a5,0xa
    80001cec:	c287b783          	ld	a5,-984(a5) # 8000b910 <_GLOBAL_OFFSET_TABLE_+0x38>
    80001cf0:	0007b783          	ld	a5,0(a5)
    80001cf4:	00978663          	beq	a5,s1,80001d00 <_ZN3TCB5yieldEv+0x50>
    80001cf8:	00600793          	li	a5,6
    80001cfc:	00f4a223          	sw	a5,4(s1)
        Scheduler::put(old); }
    80001d00:	00048513          	mv	a0,s1
    80001d04:	00001097          	auipc	ra,0x1
    80001d08:	bb0080e7          	jalr	-1104(ra) # 800028b4 <_ZN9Scheduler3putEP3TCB>
    running = Scheduler::get();
    80001d0c:	00001097          	auipc	ra,0x1
    80001d10:	b48080e7          	jalr	-1208(ra) # 80002854 <_ZN9Scheduler3getEv>
    80001d14:	0000a797          	auipc	a5,0xa
    80001d18:	c5c78793          	addi	a5,a5,-932 # 8000b970 <_ZN3TCB7runningE>
    80001d1c:	00a7b023          	sd	a0,0(a5)
    void setState(State e) { currentThreadState = e; }
    80001d20:	00100713          	li	a4,1
    80001d24:	00e52223          	sw	a4,4(a0)
    TCB::contextSwitch(&old->context, &running->context);
    80001d28:	0007b583          	ld	a1,0(a5)
    80001d2c:	04058593          	addi	a1,a1,64
    80001d30:	04048513          	addi	a0,s1,64
    80001d34:	fffff097          	auipc	ra,0xfffff
    80001d38:	3dc080e7          	jalr	988(ra) # 80001110 <_ZN3TCB13contextSwitchEPNS_7ContextES1_>
}
    80001d3c:	01813083          	ld	ra,24(sp)
    80001d40:	01013403          	ld	s0,16(sp)
    80001d44:	00813483          	ld	s1,8(sp)
    80001d48:	02010113          	addi	sp,sp,32
    80001d4c:	00008067          	ret

0000000080001d50 <_ZN3TCB7releaseEv>:

void TCB::release(){
    80001d50:	ff010113          	addi	sp,sp,-16
    80001d54:	00113423          	sd	ra,8(sp)
    80001d58:	00813023          	sd	s0,0(sp)
    80001d5c:	01010413          	addi	s0,sp,16
    80001d60:	00600713          	li	a4,6
    80001d64:	00e52223          	sw	a4,4(a0)
    this->setState(State::READY);
    holder= nullptr;
    80001d68:	02053423          	sd	zero,40(a0)
    nextBlocked= nullptr;
    80001d6c:	02053023          	sd	zero,32(a0)
    Scheduler::put(this);
    80001d70:	00001097          	auipc	ra,0x1
    80001d74:	b44080e7          	jalr	-1212(ra) # 800028b4 <_ZN9Scheduler3putEP3TCB>
}
    80001d78:	00813083          	ld	ra,8(sp)
    80001d7c:	00013403          	ld	s0,0(sp)
    80001d80:	01010113          	addi	sp,sp,16
    80001d84:	00008067          	ret

0000000080001d88 <_ZN6ThreadD1Ev>:

Thread::Thread(void (*body)(void *)) : myHandle(nullptr), body(body), arg(nullptr) {}

Thread::Thread(void (*body)(void *), void *arg) : myHandle(nullptr), body(body), arg(arg) {}

Thread::~Thread() {}
    80001d88:	ff010113          	addi	sp,sp,-16
    80001d8c:	00813423          	sd	s0,8(sp)
    80001d90:	01010413          	addi	s0,sp,16
    80001d94:	00813403          	ld	s0,8(sp)
    80001d98:	01010113          	addi	sp,sp,16
    80001d9c:	00008067          	ret

0000000080001da0 <_ZN6Thread7wrapperEPv>:

void Thread::wrapper(void* n)
{
    80001da0:	ff010113          	addi	sp,sp,-16
    80001da4:	00113423          	sd	ra,8(sp)
    80001da8:	00813023          	sd	s0,0(sp)
    80001dac:	01010413          	addi	s0,sp,16
    Thread* t=(Thread*)n;
    t->run();
    80001db0:	00053783          	ld	a5,0(a0)
    80001db4:	0107b783          	ld	a5,16(a5)
    80001db8:	000780e7          	jalr	a5
}
    80001dbc:	00813083          	ld	ra,8(sp)
    80001dc0:	00013403          	ld	s0,0(sp)
    80001dc4:	01010113          	addi	sp,sp,16
    80001dc8:	00008067          	ret

0000000080001dcc <_ZN9SemaphoreD1Ev>:

Semaphore::Semaphore(unsigned init) : val(init) {
    sem_open(&myHandle, init);
}

Semaphore::~Semaphore() {
    80001dcc:	ff010113          	addi	sp,sp,-16
    80001dd0:	00113423          	sd	ra,8(sp)
    80001dd4:	00813023          	sd	s0,0(sp)
    80001dd8:	01010413          	addi	s0,sp,16
    80001ddc:	0000a797          	auipc	a5,0xa
    80001de0:	94478793          	addi	a5,a5,-1724 # 8000b720 <_ZTV9Semaphore+0x10>
    80001de4:	00f53023          	sd	a5,0(a0)
    sem_close(myHandle);
    80001de8:	00853503          	ld	a0,8(a0)
    80001dec:	fffff097          	auipc	ra,0xfffff
    80001df0:	558080e7          	jalr	1368(ra) # 80001344 <sem_close>
};
    80001df4:	00813083          	ld	ra,8(sp)
    80001df8:	00013403          	ld	s0,0(sp)
    80001dfc:	01010113          	addi	sp,sp,16
    80001e00:	00008067          	ret

0000000080001e04 <_Znwm>:
void *operator new(size_t n) {
    80001e04:	ff010113          	addi	sp,sp,-16
    80001e08:	00113423          	sd	ra,8(sp)
    80001e0c:	00813023          	sd	s0,0(sp)
    80001e10:	01010413          	addi	s0,sp,16
    return mem_alloc(n);
    80001e14:	fffff097          	auipc	ra,0xfffff
    80001e18:	348080e7          	jalr	840(ra) # 8000115c <mem_alloc>
}
    80001e1c:	00813083          	ld	ra,8(sp)
    80001e20:	00013403          	ld	s0,0(sp)
    80001e24:	01010113          	addi	sp,sp,16
    80001e28:	00008067          	ret

0000000080001e2c <_Znam>:
void *operator new[](size_t n) {
    80001e2c:	ff010113          	addi	sp,sp,-16
    80001e30:	00113423          	sd	ra,8(sp)
    80001e34:	00813023          	sd	s0,0(sp)
    80001e38:	01010413          	addi	s0,sp,16
    return mem_alloc(n);
    80001e3c:	fffff097          	auipc	ra,0xfffff
    80001e40:	320080e7          	jalr	800(ra) # 8000115c <mem_alloc>
}
    80001e44:	00813083          	ld	ra,8(sp)
    80001e48:	00013403          	ld	s0,0(sp)
    80001e4c:	01010113          	addi	sp,sp,16
    80001e50:	00008067          	ret

0000000080001e54 <_ZdlPv>:
void operator delete(void *p) noexcept {
    80001e54:	ff010113          	addi	sp,sp,-16
    80001e58:	00113423          	sd	ra,8(sp)
    80001e5c:	00813023          	sd	s0,0(sp)
    80001e60:	01010413          	addi	s0,sp,16
    mem_free(p);
    80001e64:	fffff097          	auipc	ra,0xfffff
    80001e68:	338080e7          	jalr	824(ra) # 8000119c <mem_free>
}
    80001e6c:	00813083          	ld	ra,8(sp)
    80001e70:	00013403          	ld	s0,0(sp)
    80001e74:	01010113          	addi	sp,sp,16
    80001e78:	00008067          	ret

0000000080001e7c <_ZN6ThreadD0Ev>:
Thread::~Thread() {}
    80001e7c:	ff010113          	addi	sp,sp,-16
    80001e80:	00113423          	sd	ra,8(sp)
    80001e84:	00813023          	sd	s0,0(sp)
    80001e88:	01010413          	addi	s0,sp,16
    80001e8c:	00000097          	auipc	ra,0x0
    80001e90:	fc8080e7          	jalr	-56(ra) # 80001e54 <_ZdlPv>
    80001e94:	00813083          	ld	ra,8(sp)
    80001e98:	00013403          	ld	s0,0(sp)
    80001e9c:	01010113          	addi	sp,sp,16
    80001ea0:	00008067          	ret

0000000080001ea4 <_ZN9SemaphoreD0Ev>:
Semaphore::~Semaphore() {
    80001ea4:	fe010113          	addi	sp,sp,-32
    80001ea8:	00113c23          	sd	ra,24(sp)
    80001eac:	00813823          	sd	s0,16(sp)
    80001eb0:	00913423          	sd	s1,8(sp)
    80001eb4:	02010413          	addi	s0,sp,32
    80001eb8:	00050493          	mv	s1,a0
};
    80001ebc:	00000097          	auipc	ra,0x0
    80001ec0:	f10080e7          	jalr	-240(ra) # 80001dcc <_ZN9SemaphoreD1Ev>
    80001ec4:	00048513          	mv	a0,s1
    80001ec8:	00000097          	auipc	ra,0x0
    80001ecc:	f8c080e7          	jalr	-116(ra) # 80001e54 <_ZdlPv>
    80001ed0:	01813083          	ld	ra,24(sp)
    80001ed4:	01013403          	ld	s0,16(sp)
    80001ed8:	00813483          	ld	s1,8(sp)
    80001edc:	02010113          	addi	sp,sp,32
    80001ee0:	00008067          	ret

0000000080001ee4 <_ZdaPv>:
void operator delete[](void *p) noexcept {
    80001ee4:	ff010113          	addi	sp,sp,-16
    80001ee8:	00113423          	sd	ra,8(sp)
    80001eec:	00813023          	sd	s0,0(sp)
    80001ef0:	01010413          	addi	s0,sp,16
    mem_free(p);
    80001ef4:	fffff097          	auipc	ra,0xfffff
    80001ef8:	2a8080e7          	jalr	680(ra) # 8000119c <mem_free>
}
    80001efc:	00813083          	ld	ra,8(sp)
    80001f00:	00013403          	ld	s0,0(sp)
    80001f04:	01010113          	addi	sp,sp,16
    80001f08:	00008067          	ret

0000000080001f0c <_ZN6ThreadC1Ev>:
Thread::Thread() : myHandle(nullptr), body(nullptr), arg(nullptr) {}
    80001f0c:	ff010113          	addi	sp,sp,-16
    80001f10:	00813423          	sd	s0,8(sp)
    80001f14:	01010413          	addi	s0,sp,16
    80001f18:	00009797          	auipc	a5,0x9
    80001f1c:	7e078793          	addi	a5,a5,2016 # 8000b6f8 <_ZTV6Thread+0x10>
    80001f20:	00f53023          	sd	a5,0(a0)
    80001f24:	00053423          	sd	zero,8(a0)
    80001f28:	00053823          	sd	zero,16(a0)
    80001f2c:	00053c23          	sd	zero,24(a0)
    80001f30:	00813403          	ld	s0,8(sp)
    80001f34:	01010113          	addi	sp,sp,16
    80001f38:	00008067          	ret

0000000080001f3c <_ZN6ThreadC1EPFvPvE>:
Thread::Thread(void (*body)(void *)) : myHandle(nullptr), body(body), arg(nullptr) {}
    80001f3c:	ff010113          	addi	sp,sp,-16
    80001f40:	00813423          	sd	s0,8(sp)
    80001f44:	01010413          	addi	s0,sp,16
    80001f48:	00009797          	auipc	a5,0x9
    80001f4c:	7b078793          	addi	a5,a5,1968 # 8000b6f8 <_ZTV6Thread+0x10>
    80001f50:	00f53023          	sd	a5,0(a0)
    80001f54:	00053423          	sd	zero,8(a0)
    80001f58:	00b53823          	sd	a1,16(a0)
    80001f5c:	00053c23          	sd	zero,24(a0)
    80001f60:	00813403          	ld	s0,8(sp)
    80001f64:	01010113          	addi	sp,sp,16
    80001f68:	00008067          	ret

0000000080001f6c <_ZN6ThreadC1EPFvPvES0_>:
Thread::Thread(void (*body)(void *), void *arg) : myHandle(nullptr), body(body), arg(arg) {}
    80001f6c:	ff010113          	addi	sp,sp,-16
    80001f70:	00813423          	sd	s0,8(sp)
    80001f74:	01010413          	addi	s0,sp,16
    80001f78:	00009797          	auipc	a5,0x9
    80001f7c:	78078793          	addi	a5,a5,1920 # 8000b6f8 <_ZTV6Thread+0x10>
    80001f80:	00f53023          	sd	a5,0(a0)
    80001f84:	00053423          	sd	zero,8(a0)
    80001f88:	00b53823          	sd	a1,16(a0)
    80001f8c:	00c53c23          	sd	a2,24(a0)
    80001f90:	00813403          	ld	s0,8(sp)
    80001f94:	01010113          	addi	sp,sp,16
    80001f98:	00008067          	ret

0000000080001f9c <_ZN6Thread5startEv>:
int Thread::start (){
    80001f9c:	ff010113          	addi	sp,sp,-16
    80001fa0:	00113423          	sd	ra,8(sp)
    80001fa4:	00813023          	sd	s0,0(sp)
    80001fa8:	01010413          	addi	s0,sp,16
    if (body)
    80001fac:	01053583          	ld	a1,16(a0)
    80001fb0:	02058263          	beqz	a1,80001fd4 <_ZN6Thread5startEv+0x38>
        return thread_create(&myHandle, body, arg);
    80001fb4:	01853603          	ld	a2,24(a0)
    80001fb8:	00850513          	addi	a0,a0,8
    80001fbc:	fffff097          	auipc	ra,0xfffff
    80001fc0:	230080e7          	jalr	560(ra) # 800011ec <thread_create>
}
    80001fc4:	00813083          	ld	ra,8(sp)
    80001fc8:	00013403          	ld	s0,0(sp)
    80001fcc:	01010113          	addi	sp,sp,16
    80001fd0:	00008067          	ret
        return thread_create(&myHandle, &Thread::wrapper, this);
    80001fd4:	00050613          	mv	a2,a0
    80001fd8:	00000597          	auipc	a1,0x0
    80001fdc:	dc858593          	addi	a1,a1,-568 # 80001da0 <_ZN6Thread7wrapperEPv>
    80001fe0:	00850513          	addi	a0,a0,8
    80001fe4:	fffff097          	auipc	ra,0xfffff
    80001fe8:	208080e7          	jalr	520(ra) # 800011ec <thread_create>
    80001fec:	fd9ff06f          	j	80001fc4 <_ZN6Thread5startEv+0x28>

0000000080001ff0 <_ZN6Thread8dispatchEv>:
void Thread::dispatch() {
    80001ff0:	ff010113          	addi	sp,sp,-16
    80001ff4:	00113423          	sd	ra,8(sp)
    80001ff8:	00813023          	sd	s0,0(sp)
    80001ffc:	01010413          	addi	s0,sp,16
    thread_dispatch();
    80002000:	fffff097          	auipc	ra,0xfffff
    80002004:	28c080e7          	jalr	652(ra) # 8000128c <thread_dispatch>
}
    80002008:	00813083          	ld	ra,8(sp)
    8000200c:	00013403          	ld	s0,0(sp)
    80002010:	01010113          	addi	sp,sp,16
    80002014:	00008067          	ret

0000000080002018 <_ZN9SemaphoreC1Ej>:
Semaphore::Semaphore(unsigned init) : val(init) {
    80002018:	ff010113          	addi	sp,sp,-16
    8000201c:	00113423          	sd	ra,8(sp)
    80002020:	00813023          	sd	s0,0(sp)
    80002024:	01010413          	addi	s0,sp,16
    80002028:	00009797          	auipc	a5,0x9
    8000202c:	6f878793          	addi	a5,a5,1784 # 8000b720 <_ZTV9Semaphore+0x10>
    80002030:	00f53023          	sd	a5,0(a0)
    80002034:	00b52823          	sw	a1,16(a0)
    sem_open(&myHandle, init);
    80002038:	00850513          	addi	a0,a0,8
    8000203c:	fffff097          	auipc	ra,0xfffff
    80002040:	2b0080e7          	jalr	688(ra) # 800012ec <sem_open>
}
    80002044:	00813083          	ld	ra,8(sp)
    80002048:	00013403          	ld	s0,0(sp)
    8000204c:	01010113          	addi	sp,sp,16
    80002050:	00008067          	ret

0000000080002054 <_ZN9Semaphore4waitEv>:

int Semaphore::wait() {
    80002054:	ff010113          	addi	sp,sp,-16
    80002058:	00113423          	sd	ra,8(sp)
    8000205c:	00813023          	sd	s0,0(sp)
    80002060:	01010413          	addi	s0,sp,16
    return sem_wait(myHandle);
    80002064:	00853503          	ld	a0,8(a0)
    80002068:	fffff097          	auipc	ra,0xfffff
    8000206c:	328080e7          	jalr	808(ra) # 80001390 <sem_wait>
}
    80002070:	00813083          	ld	ra,8(sp)
    80002074:	00013403          	ld	s0,0(sp)
    80002078:	01010113          	addi	sp,sp,16
    8000207c:	00008067          	ret

0000000080002080 <_ZN9Semaphore6signalEv>:

int Semaphore::signal() {
    80002080:	ff010113          	addi	sp,sp,-16
    80002084:	00113423          	sd	ra,8(sp)
    80002088:	00813023          	sd	s0,0(sp)
    8000208c:	01010413          	addi	s0,sp,16
    return sem_signal(myHandle);
    80002090:	00853503          	ld	a0,8(a0)
    80002094:	fffff097          	auipc	ra,0xfffff
    80002098:	348080e7          	jalr	840(ra) # 800013dc <sem_signal>
}
    8000209c:	00813083          	ld	ra,8(sp)
    800020a0:	00013403          	ld	s0,0(sp)
    800020a4:	01010113          	addi	sp,sp,16
    800020a8:	00008067          	ret

00000000800020ac <_ZN6Thread5sleepEm>:





int Thread::sleep(time_t time){ return time_sleep(time); }
    800020ac:	ff010113          	addi	sp,sp,-16
    800020b0:	00113423          	sd	ra,8(sp)
    800020b4:	00813023          	sd	s0,0(sp)
    800020b8:	01010413          	addi	s0,sp,16
    800020bc:	fffff097          	auipc	ra,0xfffff
    800020c0:	410080e7          	jalr	1040(ra) # 800014cc <time_sleep>
    800020c4:	00813083          	ld	ra,8(sp)
    800020c8:	00013403          	ld	s0,0(sp)
    800020cc:	01010113          	addi	sp,sp,16
    800020d0:	00008067          	ret

00000000800020d4 <_ZN9Semaphore9timedWaitEm>:

int Semaphore::timedWait(time_t t) {
    800020d4:	ff010113          	addi	sp,sp,-16
    800020d8:	00113423          	sd	ra,8(sp)
    800020dc:	00813023          	sd	s0,0(sp)
    800020e0:	01010413          	addi	s0,sp,16
    return sem_timedwait(myHandle, t);
    800020e4:	00853503          	ld	a0,8(a0)
    800020e8:	fffff097          	auipc	ra,0xfffff
    800020ec:	400080e7          	jalr	1024(ra) # 800014e8 <sem_timedwait>
}
    800020f0:	00813083          	ld	ra,8(sp)
    800020f4:	00013403          	ld	s0,0(sp)
    800020f8:	01010113          	addi	sp,sp,16
    800020fc:	00008067          	ret

0000000080002100 <_ZN9Semaphore7tryWaitEv>:

int Semaphore::tryWait() {
    80002100:	ff010113          	addi	sp,sp,-16
    80002104:	00113423          	sd	ra,8(sp)
    80002108:	00813023          	sd	s0,0(sp)
    8000210c:	01010413          	addi	s0,sp,16
    return sem_trywait(myHandle);
    80002110:	00853503          	ld	a0,8(a0)
    80002114:	fffff097          	auipc	ra,0xfffff
    80002118:	39c080e7          	jalr	924(ra) # 800014b0 <sem_trywait>
}
    8000211c:	00813083          	ld	ra,8(sp)
    80002120:	00013403          	ld	s0,0(sp)
    80002124:	01010113          	addi	sp,sp,16
    80002128:	00008067          	ret

000000008000212c <_ZN7Console4getcEv>:

char Console::getc(){
    8000212c:	ff010113          	addi	sp,sp,-16
    80002130:	00113423          	sd	ra,8(sp)
    80002134:	00813023          	sd	s0,0(sp)
    80002138:	01010413          	addi	s0,sp,16
 return ::getc();
    8000213c:	fffff097          	auipc	ra,0xfffff
    80002140:	338080e7          	jalr	824(ra) # 80001474 <getc>
}
    80002144:	00813083          	ld	ra,8(sp)
    80002148:	00013403          	ld	s0,0(sp)
    8000214c:	01010113          	addi	sp,sp,16
    80002150:	00008067          	ret

0000000080002154 <_ZN7Console4putcEc>:

void Console::putc(char c){
    80002154:	ff010113          	addi	sp,sp,-16
    80002158:	00113423          	sd	ra,8(sp)
    8000215c:	00813023          	sd	s0,0(sp)
    80002160:	01010413          	addi	s0,sp,16
 ::putc(c);
    80002164:	fffff097          	auipc	ra,0xfffff
    80002168:	2e8080e7          	jalr	744(ra) # 8000144c <putc>
}
    8000216c:	00813083          	ld	ra,8(sp)
    80002170:	00013403          	ld	s0,0(sp)
    80002174:	01010113          	addi	sp,sp,16
    80002178:	00008067          	ret

000000008000217c <_ZN6Thread3runEv>:
    static int sleep(time_t time);

protected:
    Thread();

    virtual void run() {}
    8000217c:	ff010113          	addi	sp,sp,-16
    80002180:	00813423          	sd	s0,8(sp)
    80002184:	01010413          	addi	s0,sp,16
    80002188:	00813403          	ld	s0,8(sp)
    8000218c:	01010113          	addi	sp,sp,16
    80002190:	00008067          	ret

0000000080002194 <_ZN5Riscv10popSppSpieEv>:
#include "../h/print.hpp"
#include "../test/printing.hpp"

//#include "../h/MemoryAllocator.hpp"//SKLONI MEM.H

void Riscv::popSppSpie() {
    80002194:	ff010113          	addi	sp,sp,-16
    80002198:	00813423          	sd	s0,8(sp)
    8000219c:	01010413          	addi	s0,sp,16

    if (TCB::running->sysRegime) {
    800021a0:	00009797          	auipc	a5,0x9
    800021a4:	7787b783          	ld	a5,1912(a5) # 8000b918 <_GLOBAL_OFFSET_TABLE_+0x40>
    800021a8:	0007b783          	ld	a5,0(a5)
    800021ac:	0107c783          	lbu	a5,16(a5)
    800021b0:	02078063          	beqz	a5,800021d0 <_ZN5Riscv10popSppSpieEv+0x3c>
inline void Riscv::w_sip(uint64 sip) {
    __asm__ volatile ("csrw sip, %[sip]" : : [sip] "r"(sip));
}

inline void Riscv::ms_sstatus(uint64 mask) {
    __asm__ volatile ("csrs sstatus, %[mask]" : : [mask] "r"(mask));
    800021b4:	10000793          	li	a5,256
    800021b8:	1007a073          	csrs	sstatus,a5
    else
    {
        mc_sstatus(SSTATUS_SPP);
    }

    __asm__ volatile("csrw sepc, ra");
    800021bc:	14109073          	csrw	sepc,ra
    __asm__ volatile("sret");
    800021c0:	10200073          	sret
}
    800021c4:	00813403          	ld	s0,8(sp)
    800021c8:	01010113          	addi	sp,sp,16
    800021cc:	00008067          	ret
}

inline void Riscv::mc_sstatus(uint64 mask) {
    __asm__ volatile ("csrc sstatus, %[mask]" : : [mask] "r"(mask));
    800021d0:	10000793          	li	a5,256
    800021d4:	1007b073          	csrc	sstatus,a5
}
    800021d8:	fe5ff06f          	j	800021bc <_ZN5Riscv10popSppSpieEv+0x28>

00000000800021dc <_ZN5Riscv20handleSupervisorTrapEv>:

void Riscv::handleSupervisorTrap() {
    800021dc:	f2010113          	addi	sp,sp,-224
    800021e0:	0c113c23          	sd	ra,216(sp)
    800021e4:	0c813823          	sd	s0,208(sp)
    800021e8:	0c913423          	sd	s1,200(sp)
    800021ec:	0e010413          	addi	s0,sp,224
    __asm__ volatile ("csrr %[scause], scause" : [scause] "=r"(scause));
    800021f0:	142027f3          	csrr	a5,scause
    800021f4:	faf43023          	sd	a5,-96(s0)
    return scause;
    800021f8:	fa043783          	ld	a5,-96(s0)

    uint64 volatile scause = r_scause();
    800021fc:	fcf43c23          	sd	a5,-40(s0)

inline uint64 Riscv::r_sstatus() {
    uint64 volatile sstatus;
    __asm__ volatile ("csrr %[sstatus], sstatus" : [sstatus] "=r"(sstatus));
    80002200:	100027f3          	csrr	a5,sstatus
    80002204:	f8f43c23          	sd	a5,-104(s0)
    return sstatus;
    80002208:	f9843783          	ld	a5,-104(s0)
    uint64 volatile sstatus = r_sstatus();
    8000220c:	fcf43823          	sd	a5,-48(s0)
    __asm__ volatile ("mv %[val], a0" : [val] "=r"(a0));
    80002210:	00050793          	mv	a5,a0
    80002214:	f8f43823          	sd	a5,-112(s0)
    return a0;
    80002218:	f9043783          	ld	a5,-112(s0)
    uint64 volatile a0arg = r_a0();
    8000221c:	fcf43423          	sd	a5,-56(s0)

    switch (scause) {
    80002220:	fd843783          	ld	a5,-40(s0)
    80002224:	fff00713          	li	a4,-1
    80002228:	03f71713          	slli	a4,a4,0x3f
    8000222c:	00170713          	addi	a4,a4,1
    80002230:	28e78263          	beq	a5,a4,800024b4 <_ZN5Riscv20handleSupervisorTrapEv+0x2d8>
    80002234:	fff00713          	li	a4,-1
    80002238:	03f71713          	slli	a4,a4,0x3f
    8000223c:	00170713          	addi	a4,a4,1
    80002240:	04f76663          	bltu	a4,a5,8000228c <_ZN5Riscv20handleSupervisorTrapEv+0xb0>
    80002244:	ff878793          	addi	a5,a5,-8
    80002248:	00100713          	li	a4,1
    8000224c:	2cf76863          	bltu	a4,a5,8000251c <_ZN5Riscv20handleSupervisorTrapEv+0x340>
    __asm__ volatile ("csrr %[sepc], sepc" : [sepc] "=r"(sepc));
    80002250:	141027f3          	csrr	a5,sepc
    80002254:	faf43423          	sd	a5,-88(s0)
    return sepc;
    80002258:	fa843783          	ld	a5,-88(s0)
        case IRQ_SYSCALL_UMODE:
        case IRQ_SYSCALL_SMODE: {

            uint64 volatile sepc = r_sepc() + 4;
    8000225c:	00478793          	addi	a5,a5,4
    80002260:	f2f43423          	sd	a5,-216(s0)
            //if(a0arg!=PUTC&&a0arg!=GETC)printRegister(a0arg);
            switch (a0arg) {
    80002264:	fc843783          	ld	a5,-56(s0)
    80002268:	04200713          	li	a4,66
    8000226c:	22f76a63          	bltu	a4,a5,800024a0 <_ZN5Riscv20handleSupervisorTrapEv+0x2c4>
    80002270:	00279793          	slli	a5,a5,0x2
    80002274:	00007717          	auipc	a4,0x7
    80002278:	ee470713          	addi	a4,a4,-284 # 80009158 <CONSOLE_STATUS+0x148>
    8000227c:	00e787b3          	add	a5,a5,a4
    80002280:	0007a783          	lw	a5,0(a5)
    80002284:	00e787b3          	add	a5,a5,a4
    80002288:	00078067          	jr	a5
    switch (scause) {
    8000228c:	fff00713          	li	a4,-1
    80002290:	03f71713          	slli	a4,a4,0x3f
    80002294:	00970713          	addi	a4,a4,9
    80002298:	28e79263          	bne	a5,a4,8000251c <_ZN5Riscv20handleSupervisorTrapEv+0x340>
            w_sepc(sepc);
        }
            break;
        case IRQ_HARDWARE: {

            console_handler();
    8000229c:	00006097          	auipc	ra,0x6
    800022a0:	788080e7          	jalr	1928(ra) # 80008a24 <console_handler>

        }
            break;
    }

}
    800022a4:	0d813083          	ld	ra,216(sp)
    800022a8:	0d013403          	ld	s0,208(sp)
    800022ac:	0c813483          	ld	s1,200(sp)
    800022b0:	0e010113          	addi	sp,sp,224
    800022b4:	00008067          	ret
            );
    800022b8:	05843783          	ld	a5,88(s0)
                    uint64 volatile a1reg = r_a1fromstack();
    800022bc:	f2f43823          	sd	a5,-208(s0)
                    a0arg = (uint64) __mem_alloc(a1reg); //SKLONI MEM.H
    800022c0:	f3043503          	ld	a0,-208(s0)
    800022c4:	00006097          	auipc	ra,0x6
    800022c8:	594080e7          	jalr	1428(ra) # 80008858 <__mem_alloc>
    800022cc:	fca43423          	sd	a0,-56(s0)
                    Riscv::w_a0(a0arg);
    800022d0:	fc843783          	ld	a5,-56(s0)
    __asm__ volatile ("mv a0, %[val]": : [val] "r"(val));
    800022d4:	00078513          	mv	a0,a5
            w_sstatus(sstatus);
    800022d8:	fd043783          	ld	a5,-48(s0)
}

inline void Riscv::w_sstatus(uint64 sstatus) {
    __asm__ volatile ("csrw sstatus, %[sstatus]" : : [sstatus] "r"(sstatus));
    800022dc:	10079073          	csrw	sstatus,a5
            w_sepc(sepc);
    800022e0:	f2843783          	ld	a5,-216(s0)
    __asm__ volatile ("csrw sepc, %[sepc]" : : [sepc] "r"(sepc));
    800022e4:	14179073          	csrw	sepc,a5
}
    800022e8:	fbdff06f          	j	800022a4 <_ZN5Riscv20handleSupervisorTrapEv+0xc8>
            );
    800022ec:	05843783          	ld	a5,88(s0)
                    uint64 volatile a1reg = r_a1fromstack();
    800022f0:	f2f43c23          	sd	a5,-200(s0)
                    uint64 retCast = (uint64) __mem_free((void *) a1reg);
    800022f4:	f3843503          	ld	a0,-200(s0)
    800022f8:	00006097          	auipc	ra,0x6
    800022fc:	494080e7          	jalr	1172(ra) # 8000878c <__mem_free>
    __asm__ volatile ("mv a0, %[val]": : [val] "r"(val));
    80002300:	00050513          	mv	a0,a0
}
    80002304:	fd5ff06f          	j	800022d8 <_ZN5Riscv20handleSupervisorTrapEv+0xfc>
            );
    80002308:	05843783          	ld	a5,88(s0)
                    uint64 volatile a1reg = (uint64) r_a1fromstack();
    8000230c:	f4f43023          	sd	a5,-192(s0)
            );
    80002310:	06043783          	ld	a5,96(s0)
                    TCB::Body volatile a2reg = (TCB::Body) r_a2fromstack();
    80002314:	f4f43423          	sd	a5,-184(s0)
            );
    80002318:	06843783          	ld	a5,104(s0)
                    void *volatile a3reg = (void *) r_a3fromstack();
    8000231c:	f4f43823          	sd	a5,-176(s0)
            );
    80002320:	07043783          	ld	a5,112(s0)
                    void *volatile a4reg = (void *) r_a4fromstack();
    80002324:	f4f43c23          	sd	a5,-168(s0)
                    (*(TCB **) a1reg) = TCB::createThread(a2reg, a3reg, a4reg);
    80002328:	f4843503          	ld	a0,-184(s0)
    8000232c:	f5043583          	ld	a1,-176(s0)
    80002330:	f5843603          	ld	a2,-168(s0)
    80002334:	f4043483          	ld	s1,-192(s0)
    80002338:	00000097          	auipc	ra,0x0
    8000233c:	85c080e7          	jalr	-1956(ra) # 80001b94 <_ZN3TCB12createThreadEPFvPvES0_S0_>
    80002340:	00a4b023          	sd	a0,0(s1)
                    w_a1onstack(a1reg);
    80002344:	f4043783          	ld	a5,-192(s0)
    __asm__ volatile ("sd %[val], 11*8(fp)": : [val] "r"(val));
    80002348:	04f43c23          	sd	a5,88(s0)
                    if (a1reg != 0)a0arg = 0; else a0arg = -1;
    8000234c:	f4043783          	ld	a5,-192(s0)
    80002350:	00078a63          	beqz	a5,80002364 <_ZN5Riscv20handleSupervisorTrapEv+0x188>
    80002354:	fc043423          	sd	zero,-56(s0)
                    w_a0(a0arg);
    80002358:	fc843783          	ld	a5,-56(s0)
    __asm__ volatile ("mv a0, %[val]": : [val] "r"(val));
    8000235c:	00078513          	mv	a0,a5
}
    80002360:	f79ff06f          	j	800022d8 <_ZN5Riscv20handleSupervisorTrapEv+0xfc>
                    if (a1reg != 0)a0arg = 0; else a0arg = -1;
    80002364:	fff00793          	li	a5,-1
    80002368:	fcf43423          	sd	a5,-56(s0)
    8000236c:	fedff06f          	j	80002358 <_ZN5Riscv20handleSupervisorTrapEv+0x17c>
                    TCB::running->setFinished();
    80002370:	00009797          	auipc	a5,0x9
    80002374:	5a87b783          	ld	a5,1448(a5) # 8000b918 <_GLOBAL_OFFSET_TABLE_+0x40>
    80002378:	0007b783          	ld	a5,0(a5)
        currentThreadState = State::FINISHED;
    8000237c:	00500713          	li	a4,5
    80002380:	00e7a223          	sw	a4,4(a5)
                    TCB::yield();
    80002384:	00000097          	auipc	ra,0x0
    80002388:	92c080e7          	jalr	-1748(ra) # 80001cb0 <_ZN3TCB5yieldEv>
    __asm__ volatile ("mv a0, %[val]": : [val] "r"(val));
    8000238c:	00100793          	li	a5,1
    80002390:	00078513          	mv	a0,a5
}
    80002394:	f45ff06f          	j	800022d8 <_ZN5Riscv20handleSupervisorTrapEv+0xfc>
                    TCB::timeSliceCounter = 0;
    80002398:	00009797          	auipc	a5,0x9
    8000239c:	5587b783          	ld	a5,1368(a5) # 8000b8f0 <_GLOBAL_OFFSET_TABLE_+0x18>
    800023a0:	0007b023          	sd	zero,0(a5)
                    TCB::yield();
    800023a4:	00000097          	auipc	ra,0x0
    800023a8:	90c080e7          	jalr	-1780(ra) # 80001cb0 <_ZN3TCB5yieldEv>
                    break;
    800023ac:	f2dff06f          	j	800022d8 <_ZN5Riscv20handleSupervisorTrapEv+0xfc>
            );
    800023b0:	06043783          	ld	a5,96(s0)
                    unsigned volatile a2reg = (unsigned) r_a2fromstack();
    800023b4:	0007879b          	sext.w	a5,a5
    800023b8:	f2f42223          	sw	a5,-220(s0)
            );
    800023bc:	05843783          	ld	a5,88(s0)
                    uint64 volatile a1reg = (uint64) r_a1fromstack();
    800023c0:	f6f43023          	sd	a5,-160(s0)
                    (*(Sem **) a1reg) = Sem::open((unsigned )a2reg);
    800023c4:	f2442503          	lw	a0,-220(s0)
    800023c8:	f6043483          	ld	s1,-160(s0)
    800023cc:	0005051b          	sext.w	a0,a0
    800023d0:	00000097          	auipc	ra,0x0
    800023d4:	220080e7          	jalr	544(ra) # 800025f0 <_ZN3Sem4openEj>
    800023d8:	00a4b023          	sd	a0,0(s1)
                    w_a1onstack(a1reg);
    800023dc:	f6043783          	ld	a5,-160(s0)
    __asm__ volatile ("sd %[val], 11*8(fp)": : [val] "r"(val));
    800023e0:	04f43c23          	sd	a5,88(s0)
                    if (a1reg != 0)a0arg = 0; else a0arg = -1;
    800023e4:	f6043783          	ld	a5,-160(s0)
    800023e8:	00078a63          	beqz	a5,800023fc <_ZN5Riscv20handleSupervisorTrapEv+0x220>
    800023ec:	fc043423          	sd	zero,-56(s0)
                    w_a0(a0arg);
    800023f0:	fc843783          	ld	a5,-56(s0)
    __asm__ volatile ("mv a0, %[val]": : [val] "r"(val));
    800023f4:	00078513          	mv	a0,a5
}
    800023f8:	ee1ff06f          	j	800022d8 <_ZN5Riscv20handleSupervisorTrapEv+0xfc>
                    if (a1reg != 0)a0arg = 0; else a0arg = -1;
    800023fc:	fff00793          	li	a5,-1
    80002400:	fcf43423          	sd	a5,-56(s0)
    80002404:	fedff06f          	j	800023f0 <_ZN5Riscv20handleSupervisorTrapEv+0x214>
            );
    80002408:	05843783          	ld	a5,88(s0)
                    uint64 volatile a1reg = r_a1fromstack();
    8000240c:	f6f43423          	sd	a5,-152(s0)
                    Sem *s = (Sem *) a1reg;
    80002410:	f6843503          	ld	a0,-152(s0)
                    uint64 retCast = (uint64) s->close();
    80002414:	00000097          	auipc	ra,0x0
    80002418:	384080e7          	jalr	900(ra) # 80002798 <_ZN3Sem5closeEv>
    __asm__ volatile ("mv a0, %[val]": : [val] "r"(val));
    8000241c:	00050513          	mv	a0,a0
}
    80002420:	eb9ff06f          	j	800022d8 <_ZN5Riscv20handleSupervisorTrapEv+0xfc>
            );
    80002424:	05843783          	ld	a5,88(s0)
                    uint64 volatile a1reg = r_a1fromstack();
    80002428:	f6f43823          	sd	a5,-144(s0)
                    uint64 retCast = (uint64) ((Sem *) a1reg)->wait();
    8000242c:	f7043503          	ld	a0,-144(s0)
    80002430:	00000097          	auipc	ra,0x0
    80002434:	214080e7          	jalr	532(ra) # 80002644 <_ZN3Sem4waitEv>
    __asm__ volatile ("mv a0, %[val]": : [val] "r"(val));
    80002438:	00050513          	mv	a0,a0
}
    8000243c:	e9dff06f          	j	800022d8 <_ZN5Riscv20handleSupervisorTrapEv+0xfc>
            );
    80002440:	05843783          	ld	a5,88(s0)
                    uint64 volatile a1reg = r_a1fromstack();
    80002444:	f6f43c23          	sd	a5,-136(s0)
                    Sem *s = (Sem *) a1reg;
    80002448:	f7843503          	ld	a0,-136(s0)
                    uint64 retCast = (uint64) s->signal();
    8000244c:	00000097          	auipc	ra,0x0
    80002450:	2ac080e7          	jalr	684(ra) # 800026f8 <_ZN3Sem6signalEv>
    __asm__ volatile ("mv a0, %[val]": : [val] "r"(val));
    80002454:	00050513          	mv	a0,a0
}
    80002458:	e81ff06f          	j	800022d8 <_ZN5Riscv20handleSupervisorTrapEv+0xfc>
                    char c=__getc();
    8000245c:	00006097          	auipc	ra,0x6
    80002460:	590080e7          	jalr	1424(ra) # 800089ec <__getc>
    __asm__ volatile ("mv a0, %[val]": : [val] "r"(val));
    80002464:	00050513          	mv	a0,a0
}
    80002468:	e71ff06f          	j	800022d8 <_ZN5Riscv20handleSupervisorTrapEv+0xfc>
            );
    8000246c:	05843783          	ld	a5,88(s0)
                    uint64 volatile a1reg = r_a1fromstack();
    80002470:	f8f43023          	sd	a5,-128(s0)
                    char c=(char)a1reg;
    80002474:	f8043503          	ld	a0,-128(s0)
                    __putc(c);
    80002478:	0ff57513          	andi	a0,a0,255
    8000247c:	00006097          	auipc	ra,0x6
    80002480:	534080e7          	jalr	1332(ra) # 800089b0 <__putc>
                    break;
    80002484:	e55ff06f          	j	800022d8 <_ZN5Riscv20handleSupervisorTrapEv+0xfc>
                    TCB::running->sysRegime=true;
    80002488:	00009797          	auipc	a5,0x9
    8000248c:	4907b783          	ld	a5,1168(a5) # 8000b918 <_GLOBAL_OFFSET_TABLE_+0x40>
    80002490:	0007b783          	ld	a5,0(a5)
    80002494:	00100713          	li	a4,1
    80002498:	00e78823          	sb	a4,16(a5)
                    break;
    8000249c:	e3dff06f          	j	800022d8 <_ZN5Riscv20handleSupervisorTrapEv+0xfc>
                    printString("Prosledjen code za syscall koji nije na listi za obradu.\n");
    800024a0:	00007517          	auipc	a0,0x7
    800024a4:	c4050513          	addi	a0,a0,-960 # 800090e0 <CONSOLE_STATUS+0xd0>
    800024a8:	00003097          	auipc	ra,0x3
    800024ac:	fa4080e7          	jalr	-92(ra) # 8000544c <_Z11printStringPKc>
                    break;
    800024b0:	e29ff06f          	j	800022d8 <_ZN5Riscv20handleSupervisorTrapEv+0xfc>
    __asm__ volatile ("csrc sip, %[mask]" : : [mask] "r"(mask));
    800024b4:	00200793          	li	a5,2
    800024b8:	1447b073          	csrc	sip,a5
            TCB::timeSliceCounter++;
    800024bc:	00009717          	auipc	a4,0x9
    800024c0:	43473703          	ld	a4,1076(a4) # 8000b8f0 <_GLOBAL_OFFSET_TABLE_+0x18>
    800024c4:	00073783          	ld	a5,0(a4)
    800024c8:	00178793          	addi	a5,a5,1
    800024cc:	00f73023          	sd	a5,0(a4)
            if (TCB::timeSliceCounter >= TCB::running->getTimeSlice()) {
    800024d0:	00009717          	auipc	a4,0x9
    800024d4:	44873703          	ld	a4,1096(a4) # 8000b918 <_GLOBAL_OFFSET_TABLE_+0x40>
    800024d8:	00073703          	ld	a4,0(a4)
    uint64 getTimeSlice() const { return timeSlice; }
    800024dc:	05073703          	ld	a4,80(a4)
    800024e0:	dce7e2e3          	bltu	a5,a4,800022a4 <_ZN5Riscv20handleSupervisorTrapEv+0xc8>
    __asm__ volatile ("csrr %[sepc], sepc" : [sepc] "=r"(sepc));
    800024e4:	141027f3          	csrr	a5,sepc
    800024e8:	faf43823          	sd	a5,-80(s0)
    return sepc;
    800024ec:	fb043783          	ld	a5,-80(s0)
                uint64 volatile sepc = r_sepc();
    800024f0:	f8f43423          	sd	a5,-120(s0)
                TCB::timeSliceCounter = 0;
    800024f4:	00009797          	auipc	a5,0x9
    800024f8:	3fc7b783          	ld	a5,1020(a5) # 8000b8f0 <_GLOBAL_OFFSET_TABLE_+0x18>
    800024fc:	0007b023          	sd	zero,0(a5)
                TCB::yield();///TCB::dispatch();
    80002500:	fffff097          	auipc	ra,0xfffff
    80002504:	7b0080e7          	jalr	1968(ra) # 80001cb0 <_ZN3TCB5yieldEv>
                w_sstatus(sstatus);
    80002508:	fd043783          	ld	a5,-48(s0)
    __asm__ volatile ("csrw sstatus, %[sstatus]" : : [sstatus] "r"(sstatus));
    8000250c:	10079073          	csrw	sstatus,a5
                w_sepc(sepc);
    80002510:	f8843783          	ld	a5,-120(s0)
    __asm__ volatile ("csrw sepc, %[sepc]" : : [sepc] "r"(sepc));
    80002514:	14179073          	csrw	sepc,a5
}
    80002518:	d8dff06f          	j	800022a4 <_ZN5Riscv20handleSupervisorTrapEv+0xc8>
            printString("Unexpected trap cause\n");
    8000251c:	00007517          	auipc	a0,0x7
    80002520:	c0450513          	addi	a0,a0,-1020 # 80009120 <CONSOLE_STATUS+0x110>
    80002524:	00003097          	auipc	ra,0x3
    80002528:	f28080e7          	jalr	-216(ra) # 8000544c <_Z11printStringPKc>
            printString("scause: ");
    8000252c:	00007517          	auipc	a0,0x7
    80002530:	c0c50513          	addi	a0,a0,-1012 # 80009138 <CONSOLE_STATUS+0x128>
    80002534:	00003097          	auipc	ra,0x3
    80002538:	f18080e7          	jalr	-232(ra) # 8000544c <_Z11printStringPKc>
            printRegister(scause);
    8000253c:	fd843503          	ld	a0,-40(s0)
    80002540:	00001097          	auipc	ra,0x1
    80002544:	a60080e7          	jalr	-1440(ra) # 80002fa0 <printRegister>
    __asm__ volatile ("csrr %[stval], stval" : [stval] "=r"(stval));
    80002548:	143027f3          	csrr	a5,stval
    8000254c:	fcf43023          	sd	a5,-64(s0)
    return stval;
    80002550:	fc043483          	ld	s1,-64(s0)
            printString("stval: ");
    80002554:	00007517          	auipc	a0,0x7
    80002558:	bf450513          	addi	a0,a0,-1036 # 80009148 <CONSOLE_STATUS+0x138>
    8000255c:	00003097          	auipc	ra,0x3
    80002560:	ef0080e7          	jalr	-272(ra) # 8000544c <_Z11printStringPKc>
            printRegister(stval);
    80002564:	00048513          	mv	a0,s1
    80002568:	00001097          	auipc	ra,0x1
    8000256c:	a38080e7          	jalr	-1480(ra) # 80002fa0 <printRegister>
    __asm__ volatile ("csrr %[sepc], sepc" : [sepc] "=r"(sepc));
    80002570:	141027f3          	csrr	a5,sepc
    80002574:	faf43c23          	sd	a5,-72(s0)
    return sepc;
    80002578:	fb843483          	ld	s1,-72(s0)
            printString("sepc: ");
    8000257c:	00007517          	auipc	a0,0x7
    80002580:	bd450513          	addi	a0,a0,-1068 # 80009150 <CONSOLE_STATUS+0x140>
    80002584:	00003097          	auipc	ra,0x3
    80002588:	ec8080e7          	jalr	-312(ra) # 8000544c <_Z11printStringPKc>
            printRegister(sepc);
    8000258c:	00048513          	mv	a0,s1
    80002590:	00001097          	auipc	ra,0x1
    80002594:	a10080e7          	jalr	-1520(ra) # 80002fa0 <printRegister>
}
    80002598:	d0dff06f          	j	800022a4 <_ZN5Riscv20handleSupervisorTrapEv+0xc8>

000000008000259c <_ZN5Riscv14terminateRiscvEv>:

void Riscv::terminateRiscv() {
    8000259c:	ff010113          	addi	sp,sp,-16
    800025a0:	00813423          	sd	s0,8(sp)
    800025a4:	01010413          	addi	s0,sp,16

    *(int*)0x100000 = 0x5555;
    800025a8:	00100737          	lui	a4,0x100
    800025ac:	000057b7          	lui	a5,0x5
    800025b0:	5557879b          	addiw	a5,a5,1365
    800025b4:	00f72023          	sw	a5,0(a4) # 100000 <_entry-0x7ff00000>
    "lui t0, 0x10000\n"
    "addi t0, t0, 0x0000\n"
    "li t1, 0x5555\n"
    "sw t1, 0(t0)\n"
    );*/
    800025b8:	00813403          	ld	s0,8(sp)
    800025bc:	01010113          	addi	sp,sp,16
    800025c0:	00008067          	ret

00000000800025c4 <_ZN3SemC1Ej>:
//
#include "../h/sem.h"
#include "../h/tcb.hpp"
#include "../test/printing.hpp"

Sem::Sem(unsigned int init) {//
    800025c4:	ff010113          	addi	sp,sp,-16
    800025c8:	00813423          	sd	s0,8(sp)
    800025cc:	01010413          	addi	s0,sp,16
    val = init;
    800025d0:	00b52a23          	sw	a1,20(a0)
    on = true;
    800025d4:	00100793          	li	a5,1
    800025d8:	00f50823          	sb	a5,16(a0)
    blockedFirst= nullptr;
    800025dc:	00053023          	sd	zero,0(a0)
    blockedLast= nullptr;
    800025e0:	00053423          	sd	zero,8(a0)
}
    800025e4:	00813403          	ld	s0,8(sp)
    800025e8:	01010113          	addi	sp,sp,16
    800025ec:	00008067          	ret

00000000800025f0 <_ZN3Sem4openEj>:

Sem::~Sem() {
    close();
}

Sem *Sem::open(unsigned i) {//
    800025f0:	fe010113          	addi	sp,sp,-32
    800025f4:	00113c23          	sd	ra,24(sp)
    800025f8:	00813823          	sd	s0,16(sp)
    800025fc:	00913423          	sd	s1,8(sp)
    80002600:	01213023          	sd	s2,0(sp)
    80002604:	02010413          	addi	s0,sp,32
    80002608:	00050913          	mv	s2,a0
    Sem *s = new Sem(i);
    8000260c:	01800513          	li	a0,24
    80002610:	fffff097          	auipc	ra,0xfffff
    80002614:	7f4080e7          	jalr	2036(ra) # 80001e04 <_Znwm>
    80002618:	00050493          	mv	s1,a0
    8000261c:	00090593          	mv	a1,s2
    80002620:	00000097          	auipc	ra,0x0
    80002624:	fa4080e7          	jalr	-92(ra) # 800025c4 <_ZN3SemC1Ej>
    return s;
}
    80002628:	00048513          	mv	a0,s1
    8000262c:	01813083          	ld	ra,24(sp)
    80002630:	01013403          	ld	s0,16(sp)
    80002634:	00813483          	ld	s1,8(sp)
    80002638:	00013903          	ld	s2,0(sp)
    8000263c:	02010113          	addi	sp,sp,32
    80002640:	00008067          	ret

0000000080002644 <_ZN3Sem4waitEv>:

int Sem::wait() {
    if (!on) {
    80002644:	01054783          	lbu	a5,16(a0)
    80002648:	0a078063          	beqz	a5,800026e8 <_ZN3Sem4waitEv+0xa4>
int Sem::wait() {
    8000264c:	fe010113          	addi	sp,sp,-32
    80002650:	00113c23          	sd	ra,24(sp)
    80002654:	00813823          	sd	s0,16(sp)
    80002658:	00913423          	sd	s1,8(sp)
    8000265c:	02010413          	addi	s0,sp,32
    80002660:	00050493          	mv	s1,a0
        return -1;
    }
    //printString("Cekaj na sem\n");
    //printInt(val);

    if (--val < 0) {
    80002664:	01452783          	lw	a5,20(a0)
    80002668:	fff7879b          	addiw	a5,a5,-1
    8000266c:	00f52a23          	sw	a5,20(a0)
    80002670:	02079713          	slli	a4,a5,0x20
    80002674:	02074263          	bltz	a4,80002698 <_ZN3Sem4waitEv+0x54>
        }
       // printString("Blokirana, yieldovano\n");
        TCB::yield();
       // printString("Odblokirana\n");
    }
    if (!on) {
    80002678:	0104c783          	lbu	a5,16(s1)
    8000267c:	06078a63          	beqz	a5,800026f0 <_ZN3Sem4waitEv+0xac>
        return -1;
    }
    return 0;
    80002680:	00000513          	li	a0,0
}
    80002684:	01813083          	ld	ra,24(sp)
    80002688:	01013403          	ld	s0,16(sp)
    8000268c:	00813483          	ld	s1,8(sp)
    80002690:	02010113          	addi	sp,sp,32
    80002694:	00008067          	ret
        TCB *n = TCB::running;
    80002698:	00009797          	auipc	a5,0x9
    8000269c:	2807b783          	ld	a5,640(a5) # 8000b918 <_GLOBAL_OFFSET_TABLE_+0x40>
    800026a0:	0007b783          	ld	a5,0(a5)
        n->holder= this;
    800026a4:	02a7b423          	sd	a0,40(a5)
    void setState(State e) { currentThreadState = e; }
    800026a8:	00300713          	li	a4,3
    800026ac:	00e7a223          	sw	a4,4(a5)
        n->nextBlocked= nullptr;
    800026b0:	0207b023          	sd	zero,32(a5)
        if (blockedFirst != nullptr) {
    800026b4:	00053703          	ld	a4,0(a0)
    800026b8:	02070263          	beqz	a4,800026dc <_ZN3Sem4waitEv+0x98>
            blockedLast->nextBlocked = n;
    800026bc:	00853703          	ld	a4,8(a0)
    800026c0:	02f73023          	sd	a5,32(a4)
            blockedLast = blockedLast->nextBlocked;
    800026c4:	00853783          	ld	a5,8(a0)
    800026c8:	0207b783          	ld	a5,32(a5)
    800026cc:	00f53423          	sd	a5,8(a0)
        TCB::yield();
    800026d0:	fffff097          	auipc	ra,0xfffff
    800026d4:	5e0080e7          	jalr	1504(ra) # 80001cb0 <_ZN3TCB5yieldEv>
    800026d8:	fa1ff06f          	j	80002678 <_ZN3Sem4waitEv+0x34>
            blockedFirst = blockedLast = n;
    800026dc:	00f53423          	sd	a5,8(a0)
    800026e0:	00f53023          	sd	a5,0(a0)
    800026e4:	fedff06f          	j	800026d0 <_ZN3Sem4waitEv+0x8c>
        return -1;
    800026e8:	fff00513          	li	a0,-1
}
    800026ec:	00008067          	ret
        return -1;
    800026f0:	fff00513          	li	a0,-1
    800026f4:	f91ff06f          	j	80002684 <_ZN3Sem4waitEv+0x40>

00000000800026f8 <_ZN3Sem6signalEv>:

int Sem::signal() {
    if (!on) {
    800026f8:	01054783          	lbu	a5,16(a0)
    800026fc:	08078663          	beqz	a5,80002788 <_ZN3Sem6signalEv+0x90>
int Sem::signal() {
    80002700:	fe010113          	addi	sp,sp,-32
    80002704:	00113c23          	sd	ra,24(sp)
    80002708:	00813823          	sd	s0,16(sp)
    8000270c:	00913423          	sd	s1,8(sp)
    80002710:	02010413          	addi	s0,sp,32
    80002714:	00050493          	mv	s1,a0
        return -1;
    }
    //printString("Signal\n");
    //printInt(val);
    if (++val <= 0) {
    80002718:	01452783          	lw	a5,20(a0)
    8000271c:	0017879b          	addiw	a5,a5,1
    80002720:	0007871b          	sext.w	a4,a5
    80002724:	00f52a23          	sw	a5,20(a0)
    80002728:	00e05e63          	blez	a4,80002744 <_ZN3Sem6signalEv+0x4c>
            TCB *n = blockedFirst;
            blockedFirst = blockedFirst->nextBlocked;
            n->release();
        }
    }
    return 0;
    8000272c:	00000513          	li	a0,0
}
    80002730:	01813083          	ld	ra,24(sp)
    80002734:	01013403          	ld	s0,16(sp)
    80002738:	00813483          	ld	s1,8(sp)
    8000273c:	02010113          	addi	sp,sp,32
    80002740:	00008067          	ret
        if (blockedLast == blockedFirst && blockedFirst != nullptr) {
    80002744:	00853783          	ld	a5,8(a0)
    80002748:	00053503          	ld	a0,0(a0)
    8000274c:	02a78263          	beq	a5,a0,80002770 <_ZN3Sem6signalEv+0x78>
        if (blockedFirst != nullptr) {
    80002750:	0004b503          	ld	a0,0(s1)
    80002754:	02050e63          	beqz	a0,80002790 <_ZN3Sem6signalEv+0x98>
            blockedFirst = blockedFirst->nextBlocked;
    80002758:	02053783          	ld	a5,32(a0)
    8000275c:	00f4b023          	sd	a5,0(s1)
            n->release();
    80002760:	fffff097          	auipc	ra,0xfffff
    80002764:	5f0080e7          	jalr	1520(ra) # 80001d50 <_ZN3TCB7releaseEv>
    return 0;
    80002768:	00000513          	li	a0,0
    8000276c:	fc5ff06f          	j	80002730 <_ZN3Sem6signalEv+0x38>
        if (blockedLast == blockedFirst && blockedFirst != nullptr) {
    80002770:	fe0500e3          	beqz	a0,80002750 <_ZN3Sem6signalEv+0x58>
            blockedFirst = blockedLast = nullptr;
    80002774:	0004b423          	sd	zero,8(s1)
    80002778:	0004b023          	sd	zero,0(s1)
            n->release();
    8000277c:	fffff097          	auipc	ra,0xfffff
    80002780:	5d4080e7          	jalr	1492(ra) # 80001d50 <_ZN3TCB7releaseEv>
    80002784:	fcdff06f          	j	80002750 <_ZN3Sem6signalEv+0x58>
        return -1;
    80002788:	fff00513          	li	a0,-1
}
    8000278c:	00008067          	ret
    return 0;
    80002790:	00000513          	li	a0,0
    80002794:	f9dff06f          	j	80002730 <_ZN3Sem6signalEv+0x38>

0000000080002798 <_ZN3Sem5closeEv>:

int Sem::close() {
    80002798:	fe010113          	addi	sp,sp,-32
    8000279c:	00113c23          	sd	ra,24(sp)
    800027a0:	00813823          	sd	s0,16(sp)
    800027a4:	00913423          	sd	s1,8(sp)
    800027a8:	02010413          	addi	s0,sp,32
    800027ac:	00050493          	mv	s1,a0
    if (!on) {
    800027b0:	01054783          	lbu	a5,16(a0)
    800027b4:	04078663          	beqz	a5,80002800 <_ZN3Sem5closeEv+0x68>
        return -1;
    }

    while (blockedFirst != nullptr) {
    800027b8:	0004b503          	ld	a0,0(s1)
    800027bc:	02050263          	beqz	a0,800027e0 <_ZN3Sem5closeEv+0x48>
        TCB *n = blockedFirst;
        blockedFirst = blockedFirst->nextBlocked;
    800027c0:	02053783          	ld	a5,32(a0)
    800027c4:	00f4b023          	sd	a5,0(s1)
        n->release();
    800027c8:	fffff097          	auipc	ra,0xfffff
    800027cc:	588080e7          	jalr	1416(ra) # 80001d50 <_ZN3TCB7releaseEv>
        if (blockedFirst == nullptr) {
    800027d0:	0004b783          	ld	a5,0(s1)
    800027d4:	fe0792e3          	bnez	a5,800027b8 <_ZN3Sem5closeEv+0x20>
            blockedLast = blockedFirst;
    800027d8:	00f4b423          	sd	a5,8(s1)
    800027dc:	fddff06f          	j	800027b8 <_ZN3Sem5closeEv+0x20>
        }
    }

    on = false;
    800027e0:	00048823          	sb	zero,16(s1)
    val = 0;
    800027e4:	0004aa23          	sw	zero,20(s1)

    return 0;
    800027e8:	00000513          	li	a0,0
}
    800027ec:	01813083          	ld	ra,24(sp)
    800027f0:	01013403          	ld	s0,16(sp)
    800027f4:	00813483          	ld	s1,8(sp)
    800027f8:	02010113          	addi	sp,sp,32
    800027fc:	00008067          	ret
        return -1;
    80002800:	fff00513          	li	a0,-1
    80002804:	fe9ff06f          	j	800027ec <_ZN3Sem5closeEv+0x54>

0000000080002808 <_ZN3SemD1Ev>:
Sem::~Sem() {
    80002808:	ff010113          	addi	sp,sp,-16
    8000280c:	00113423          	sd	ra,8(sp)
    80002810:	00813023          	sd	s0,0(sp)
    80002814:	01010413          	addi	s0,sp,16
    close();
    80002818:	00000097          	auipc	ra,0x0
    8000281c:	f80080e7          	jalr	-128(ra) # 80002798 <_ZN3Sem5closeEv>
}
    80002820:	00813083          	ld	ra,8(sp)
    80002824:	00013403          	ld	s0,0(sp)
    80002828:	01010113          	addi	sp,sp,16
    8000282c:	00008067          	ret

0000000080002830 <_ZN9Scheduler8idleFuncEPv>:

TCB *Scheduler::idle = nullptr;
TCB *Scheduler::last = nullptr;
TCB *Scheduler::first = nullptr;

void Scheduler::idleFunc(void *arg) {
    80002830:	ff010113          	addi	sp,sp,-16
    80002834:	00113423          	sd	ra,8(sp)
    80002838:	00813023          	sd	s0,0(sp)
    8000283c:	01010413          	addi	s0,sp,16
    while (1) {
        printString("spin\n");//
    80002840:	00007517          	auipc	a0,0x7
    80002844:	a2850513          	addi	a0,a0,-1496 # 80009268 <CONSOLE_STATUS+0x258>
    80002848:	00003097          	auipc	ra,0x3
    8000284c:	c04080e7          	jalr	-1020(ra) # 8000544c <_Z11printStringPKc>
    while (1) {
    80002850:	ff1ff06f          	j	80002840 <_ZN9Scheduler8idleFuncEPv+0x10>

0000000080002854 <_ZN9Scheduler3getEv>:
    }
}

TCB *Scheduler::get() {
    80002854:	ff010113          	addi	sp,sp,-16
    80002858:	00813423          	sd	s0,8(sp)
    8000285c:	01010413          	addi	s0,sp,16
          n = n->next;
      }
      printString("to je to\n");
      */

    if (first == nullptr) {
    80002860:	00009517          	auipc	a0,0x9
    80002864:	13053503          	ld	a0,304(a0) # 8000b990 <_ZN9Scheduler5firstE>
    80002868:	02050663          	beqz	a0,80002894 <_ZN9Scheduler3getEv+0x40>
        return idle;
    }

    TCB *ret = first;

    if (first == last) {
    8000286c:	00009797          	auipc	a5,0x9
    80002870:	1347b783          	ld	a5,308(a5) # 8000b9a0 <_ZN9Scheduler4lastE>
    80002874:	02f50663          	beq	a0,a5,800028a0 <_ZN9Scheduler3getEv+0x4c>
        first = last = nullptr;
    } else {
        first = first->next;
    80002878:	01853783          	ld	a5,24(a0)
    8000287c:	00009717          	auipc	a4,0x9
    80002880:	10f73a23          	sd	a5,276(a4) # 8000b990 <_ZN9Scheduler5firstE>
    }
    ret->next = nullptr;
    80002884:	00053c23          	sd	zero,24(a0)
           n=n->next;
       }
       printString("to je to\n");
   */
    return ret;
}
    80002888:	00813403          	ld	s0,8(sp)
    8000288c:	01010113          	addi	sp,sp,16
    80002890:	00008067          	ret
        return idle;
    80002894:	00009517          	auipc	a0,0x9
    80002898:	10453503          	ld	a0,260(a0) # 8000b998 <_ZN9Scheduler4idleE>
    8000289c:	fedff06f          	j	80002888 <_ZN9Scheduler3getEv+0x34>
        first = last = nullptr;
    800028a0:	00009797          	auipc	a5,0x9
    800028a4:	0f078793          	addi	a5,a5,240 # 8000b990 <_ZN9Scheduler5firstE>
    800028a8:	0007b823          	sd	zero,16(a5)
    800028ac:	0007b023          	sd	zero,0(a5)
    800028b0:	fd5ff06f          	j	80002884 <_ZN9Scheduler3getEv+0x30>

00000000800028b4 <_ZN9Scheduler3putEP3TCB>:

void Scheduler::put(TCB *tcb) {
    800028b4:	ff010113          	addi	sp,sp,-16
    800028b8:	00813423          	sd	s0,8(sp)
    800028bc:	01010413          	addi	s0,sp,16
        printRegister((uint64)n);
        n=n->next;
    }
    printString("to je to\n");
*/
    if (tcb == idle || tcb == nullptr)return;
    800028c0:	00009797          	auipc	a5,0x9
    800028c4:	0d87b783          	ld	a5,216(a5) # 8000b998 <_ZN9Scheduler4idleE>
    800028c8:	02a78663          	beq	a5,a0,800028f4 <_ZN9Scheduler3putEP3TCB+0x40>
    800028cc:	02050463          	beqz	a0,800028f4 <_ZN9Scheduler3putEP3TCB+0x40>

    tcb->next = nullptr;
    800028d0:	00053c23          	sd	zero,24(a0)
    if (first == nullptr) {
    800028d4:	00009797          	auipc	a5,0x9
    800028d8:	0bc7b783          	ld	a5,188(a5) # 8000b990 <_ZN9Scheduler5firstE>
    800028dc:	02078263          	beqz	a5,80002900 <_ZN9Scheduler3putEP3TCB+0x4c>
        first = last = tcb;
    } else {
        last = last->next = tcb;
    800028e0:	00009797          	auipc	a5,0x9
    800028e4:	0b078793          	addi	a5,a5,176 # 8000b990 <_ZN9Scheduler5firstE>
    800028e8:	0107b703          	ld	a4,16(a5)
    800028ec:	00a73c23          	sd	a0,24(a4)
    800028f0:	00a7b823          	sd	a0,16(a5)
           printRegister((uint64) n);
           n = n->next;
       }
       printString("to je to\n");
   */
}
    800028f4:	00813403          	ld	s0,8(sp)
    800028f8:	01010113          	addi	sp,sp,16
    800028fc:	00008067          	ret
        first = last = tcb;
    80002900:	00009797          	auipc	a5,0x9
    80002904:	09078793          	addi	a5,a5,144 # 8000b990 <_ZN9Scheduler5firstE>
    80002908:	00a7b823          	sd	a0,16(a5)
    8000290c:	00a7b023          	sd	a0,0(a5)
    80002910:	fe5ff06f          	j	800028f4 <_ZN9Scheduler3putEP3TCB+0x40>

0000000080002914 <_ZN9Scheduler6removeEP3TCB>:

void Scheduler::remove(TCB *t) {
    80002914:	ff010113          	addi	sp,sp,-16
    80002918:	00813423          	sd	s0,8(sp)
    8000291c:	01010413          	addi	s0,sp,16
    TCB *f = first;
    80002920:	00009797          	auipc	a5,0x9
    80002924:	0707b783          	ld	a5,112(a5) # 8000b990 <_ZN9Scheduler5firstE>
    TCB *prev = nullptr;
    80002928:	00000713          	li	a4,0
    while (f != nullptr) {//&& f != last
    8000292c:	02078263          	beqz	a5,80002950 <_ZN9Scheduler6removeEP3TCB+0x3c>
        if (f == t) {
    80002930:	00a78863          	beq	a5,a0,80002940 <_ZN9Scheduler6removeEP3TCB+0x2c>
            if (prev != nullptr)prev->next = f->next;
            f->next = nullptr;
            break;
        }
        prev = f;
    80002934:	00078713          	mv	a4,a5
        f = f->next;
    80002938:	0187b783          	ld	a5,24(a5)
    while (f != nullptr) {//&& f != last
    8000293c:	ff1ff06f          	j	8000292c <_ZN9Scheduler6removeEP3TCB+0x18>
            if (prev != nullptr)prev->next = f->next;
    80002940:	00070663          	beqz	a4,8000294c <_ZN9Scheduler6removeEP3TCB+0x38>
    80002944:	0187b683          	ld	a3,24(a5)
    80002948:	00d73c23          	sd	a3,24(a4)
            f->next = nullptr;
    8000294c:	0007bc23          	sd	zero,24(a5)
    }
}
    80002950:	00813403          	ld	s0,8(sp)
    80002954:	01010113          	addi	sp,sp,16
    80002958:	00008067          	ret

000000008000295c <_ZN9Scheduler5emptyEv>:
        static Scheduler instance;
        return instance;
    }

    static bool isEmpty() {
        return first == nullptr;
    8000295c:	00009797          	auipc	a5,0x9
    80002960:	0347b783          	ld	a5,52(a5) # 8000b990 <_ZN9Scheduler5firstE>
    cleanUp();
    delete idle;
}

void Scheduler::empty() {
    while (!isEmpty()) {
    80002964:	02078c63          	beqz	a5,8000299c <_ZN9Scheduler5emptyEv+0x40>
void Scheduler::empty() {
    80002968:	ff010113          	addi	sp,sp,-16
    8000296c:	00113423          	sd	ra,8(sp)
    80002970:	00813023          	sd	s0,0(sp)
    80002974:	01010413          	addi	s0,sp,16
        Scheduler::get();
    80002978:	00000097          	auipc	ra,0x0
    8000297c:	edc080e7          	jalr	-292(ra) # 80002854 <_ZN9Scheduler3getEv>
    80002980:	00009797          	auipc	a5,0x9
    80002984:	0107b783          	ld	a5,16(a5) # 8000b990 <_ZN9Scheduler5firstE>
    while (!isEmpty()) {
    80002988:	fe0798e3          	bnez	a5,80002978 <_ZN9Scheduler5emptyEv+0x1c>
    }

}
    8000298c:	00813083          	ld	ra,8(sp)
    80002990:	00013403          	ld	s0,0(sp)
    80002994:	01010113          	addi	sp,sp,16
    80002998:	00008067          	ret
    8000299c:	00008067          	ret

00000000800029a0 <_ZN9Scheduler7cleanUpEv>:
    800029a0:	00009797          	auipc	a5,0x9
    800029a4:	ff07b783          	ld	a5,-16(a5) # 8000b990 <_ZN9Scheduler5firstE>

void Scheduler::cleanUp() {
    while (!isEmpty()) {
    800029a8:	06078863          	beqz	a5,80002a18 <_ZN9Scheduler7cleanUpEv+0x78>
void Scheduler::cleanUp() {
    800029ac:	fe010113          	addi	sp,sp,-32
    800029b0:	00113c23          	sd	ra,24(sp)
    800029b4:	00813823          	sd	s0,16(sp)
    800029b8:	00913423          	sd	s1,8(sp)
    800029bc:	02010413          	addi	s0,sp,32
        TCB *temp = Scheduler::get();
    800029c0:	00000097          	auipc	ra,0x0
    800029c4:	e94080e7          	jalr	-364(ra) # 80002854 <_ZN9Scheduler3getEv>
    800029c8:	00050493          	mv	s1,a0
        delete temp;
    800029cc:	02051263          	bnez	a0,800029f0 <_ZN9Scheduler7cleanUpEv+0x50>
    800029d0:	00009797          	auipc	a5,0x9
    800029d4:	fc07b783          	ld	a5,-64(a5) # 8000b990 <_ZN9Scheduler5firstE>
    while (!isEmpty()) {
    800029d8:	fe0794e3          	bnez	a5,800029c0 <_ZN9Scheduler7cleanUpEv+0x20>
    }

    800029dc:	01813083          	ld	ra,24(sp)
    800029e0:	01013403          	ld	s0,16(sp)
    800029e4:	00813483          	ld	s1,8(sp)
    800029e8:	02010113          	addi	sp,sp,32
    800029ec:	00008067          	ret
        Scheduler::remove(this);
    800029f0:	00000097          	auipc	ra,0x0
    800029f4:	f24080e7          	jalr	-220(ra) # 80002914 <_ZN9Scheduler6removeEP3TCB>
        delete[] stack;
    800029f8:	0384b503          	ld	a0,56(s1)
    800029fc:	00050663          	beqz	a0,80002a08 <_ZN9Scheduler7cleanUpEv+0x68>
    80002a00:	fffff097          	auipc	ra,0xfffff
    80002a04:	4e4080e7          	jalr	1252(ra) # 80001ee4 <_ZdaPv>
        delete temp;
    80002a08:	00048513          	mv	a0,s1
    80002a0c:	fffff097          	auipc	ra,0xfffff
    80002a10:	448080e7          	jalr	1096(ra) # 80001e54 <_ZdlPv>
    80002a14:	fbdff06f          	j	800029d0 <_ZN9Scheduler7cleanUpEv+0x30>
    80002a18:	00008067          	ret

0000000080002a1c <_ZN9SchedulerD1Ev>:
Scheduler::~Scheduler() {
    80002a1c:	fe010113          	addi	sp,sp,-32
    80002a20:	00113c23          	sd	ra,24(sp)
    80002a24:	00813823          	sd	s0,16(sp)
    80002a28:	00913423          	sd	s1,8(sp)
    80002a2c:	02010413          	addi	s0,sp,32
    cleanUp();
    80002a30:	00000097          	auipc	ra,0x0
    80002a34:	f70080e7          	jalr	-144(ra) # 800029a0 <_ZN9Scheduler7cleanUpEv>
    delete idle;
    80002a38:	00009497          	auipc	s1,0x9
    80002a3c:	f604b483          	ld	s1,-160(s1) # 8000b998 <_ZN9Scheduler4idleE>
    80002a40:	02048663          	beqz	s1,80002a6c <_ZN9SchedulerD1Ev+0x50>
        Scheduler::remove(this);
    80002a44:	00048513          	mv	a0,s1
    80002a48:	00000097          	auipc	ra,0x0
    80002a4c:	ecc080e7          	jalr	-308(ra) # 80002914 <_ZN9Scheduler6removeEP3TCB>
        delete[] stack;
    80002a50:	0384b503          	ld	a0,56(s1)
    80002a54:	00050663          	beqz	a0,80002a60 <_ZN9SchedulerD1Ev+0x44>
    80002a58:	fffff097          	auipc	ra,0xfffff
    80002a5c:	48c080e7          	jalr	1164(ra) # 80001ee4 <_ZdaPv>
    80002a60:	00048513          	mv	a0,s1
    80002a64:	fffff097          	auipc	ra,0xfffff
    80002a68:	3f0080e7          	jalr	1008(ra) # 80001e54 <_ZdlPv>
}
    80002a6c:	01813083          	ld	ra,24(sp)
    80002a70:	01013403          	ld	s0,16(sp)
    80002a74:	00813483          	ld	s1,8(sp)
    80002a78:	02010113          	addi	sp,sp,32
    80002a7c:	00008067          	ret

0000000080002a80 <_ZN15MemoryAllocator9mem_allocEm>:

MemoryBlock *MemoryAllocator::base = nullptr;
char *MemoryAllocator::baseAddress = nullptr;
size_t MemoryAllocator::freeSpaceInBlks = 0;

void *MemoryAllocator::mem_alloc(size_t size) { //numofBlocks +1
    80002a80:	ff010113          	addi	sp,sp,-16
    80002a84:	00813423          	sd	s0,8(sp)
    80002a88:	01010413          	addi	s0,sp,16
//best-fit
//lock
    if (size <= 0) {
    80002a8c:	10050263          	beqz	a0,80002b90 <_ZN15MemoryAllocator9mem_allocEm+0x110>
    80002a90:	00050693          	mv	a3,a0
        //unlock
        return nullptr;
    }
    if (size > freeSpaceInBlks) {
    80002a94:	00009597          	auipc	a1,0x9
    80002a98:	f145b583          	ld	a1,-236(a1) # 8000b9a8 <_ZN15MemoryAllocator15freeSpaceInBlksE>
    80002a9c:	0ea5ee63          	bltu	a1,a0,80002b98 <_ZN15MemoryAllocator9mem_allocEm+0x118>
        //unlock
        return nullptr;
    }

    if (base == nullptr) {
    80002aa0:	00009517          	auipc	a0,0x9
    80002aa4:	f1053503          	ld	a0,-240(a0) # 8000b9b0 <_ZN15MemoryAllocator4baseE>
    80002aa8:	0a050a63          	beqz	a0,80002b5c <_ZN15MemoryAllocator9mem_allocEm+0xdc>
        return nullptr;
    }

    MemoryBlock *curr = base;
    MemoryBlock *toReturn = nullptr;
    size_t remainBest = freeSpaceInBlks;
    80002aac:	00058613          	mv	a2,a1
    MemoryBlock *toReturn = nullptr;
    80002ab0:	00000713          	li	a4,0
    80002ab4:	0100006f          	j	80002ac4 <_ZN15MemoryAllocator9mem_allocEm+0x44>

                } else {

                    if (toReturn == nullptr) {
                        toReturn = curr;
                        remainBest = remain;
    80002ab8:	00078613          	mv	a2,a5
                        toReturn = curr;
    80002abc:	00050713          	mv	a4,a0
                        }
                    }
                }
            }
        }
        curr = curr->next;
    80002ac0:	00053503          	ld	a0,0(a0)
    while (curr != nullptr) {
    80002ac4:	02050c63          	beqz	a0,80002afc <_ZN15MemoryAllocator9mem_allocEm+0x7c>
        if (!curr->allocated) {
    80002ac8:	01854783          	lbu	a5,24(a0)
    80002acc:	fe079ae3          	bnez	a5,80002ac0 <_ZN15MemoryAllocator9mem_allocEm+0x40>
            size_t remain = curr->size - size - 1;
    80002ad0:	01053783          	ld	a5,16(a0)
    80002ad4:	40d787b3          	sub	a5,a5,a3
    80002ad8:	fff78793          	addi	a5,a5,-1
                if (remain == 0) {
    80002adc:	00078c63          	beqz	a5,80002af4 <_ZN15MemoryAllocator9mem_allocEm+0x74>
                    if (toReturn == nullptr) {
    80002ae0:	fc070ce3          	beqz	a4,80002ab8 <_ZN15MemoryAllocator9mem_allocEm+0x38>
                        if (remainBest > remain) {
    80002ae4:	fcc7fee3          	bgeu	a5,a2,80002ac0 <_ZN15MemoryAllocator9mem_allocEm+0x40>
                            remainBest = remain;
    80002ae8:	00078613          	mv	a2,a5
                            toReturn = curr;
    80002aec:	00050713          	mv	a4,a0
    80002af0:	fd1ff06f          	j	80002ac0 <_ZN15MemoryAllocator9mem_allocEm+0x40>
                    remainBest = 0;
    80002af4:	00078613          	mv	a2,a5
                    toReturn = curr;
    80002af8:	00050713          	mv	a4,a0
    }

    if (toReturn == nullptr) {
    80002afc:	0a070263          	beqz	a4,80002ba0 <_ZN15MemoryAllocator9mem_allocEm+0x120>
        //unlock
        return nullptr;
    }

    toReturn->allocated = true;
    80002b00:	00100793          	li	a5,1
    80002b04:	00f70c23          	sb	a5,24(a4)
    freeSpaceInBlks = freeSpaceInBlks - size - 1;//numofBlocks+1
    80002b08:	40d585b3          	sub	a1,a1,a3
    80002b0c:	fff58593          	addi	a1,a1,-1
    80002b10:	00009797          	auipc	a5,0x9
    80002b14:	e8b7bc23          	sd	a1,-360(a5) # 8000b9a8 <_ZN15MemoryAllocator15freeSpaceInBlksE>

    if (remainBest == 0) {
    80002b18:	04060863          	beqz	a2,80002b68 <_ZN15MemoryAllocator9mem_allocEm+0xe8>
        //unlock
        return (void *) ((char *) ((char *) toReturn + sizeof(MemoryBlock)));//MEM_BLOCK_SIZE
    }

    if (remainBest == 1) {
    80002b1c:	00100793          	li	a5,1
    80002b20:	04f60863          	beq	a2,a5,80002b70 <_ZN15MemoryAllocator9mem_allocEm+0xf0>
        toReturn->size++;
        //unlock
        return (void *) ((char *) ((char *) toReturn + sizeof(MemoryBlock)));//MEM_BLOCK_SIZE
    }

    size_t s = toReturn->size;
    80002b24:	01073603          	ld	a2,16(a4)

    MemoryBlock *fragment = (MemoryBlock *) ((char *) toReturn + (size + 1) * MEM_BLOCK_SIZE);
    80002b28:	00168593          	addi	a1,a3,1
    80002b2c:	00659793          	slli	a5,a1,0x6
    80002b30:	00f707b3          	add	a5,a4,a5
    fragment->next = toReturn->next;
    80002b34:	00073503          	ld	a0,0(a4)
    80002b38:	00a7b023          	sd	a0,0(a5)
    fragment->prev = toReturn;
    80002b3c:	00e7b423          	sd	a4,8(a5)
    fragment->size = s - size - 1;
    80002b40:	40d606b3          	sub	a3,a2,a3
    80002b44:	fff68693          	addi	a3,a3,-1
    80002b48:	00d7b823          	sd	a3,16(a5)
    fragment->allocated = false;
    80002b4c:	00078c23          	sb	zero,24(a5)
    toReturn->next = fragment;
    80002b50:	00f73023          	sd	a5,0(a4)
    toReturn->size = size + 1;
    80002b54:	00b73823          	sd	a1,16(a4)
//unlocl

    return (void *) ((char *) toReturn + sizeof(MemoryBlock));//MEM_BLOCK_SIZE
    80002b58:	02070513          	addi	a0,a4,32
}
    80002b5c:	00813403          	ld	s0,8(sp)
    80002b60:	01010113          	addi	sp,sp,16
    80002b64:	00008067          	ret
        return (void *) ((char *) ((char *) toReturn + sizeof(MemoryBlock)));//MEM_BLOCK_SIZE
    80002b68:	02070513          	addi	a0,a4,32
    80002b6c:	ff1ff06f          	j	80002b5c <_ZN15MemoryAllocator9mem_allocEm+0xdc>
        freeSpaceInBlks = freeSpaceInBlks - 1;
    80002b70:	fff58593          	addi	a1,a1,-1
    80002b74:	00009797          	auipc	a5,0x9
    80002b78:	e2b7ba23          	sd	a1,-460(a5) # 8000b9a8 <_ZN15MemoryAllocator15freeSpaceInBlksE>
        toReturn->size++;
    80002b7c:	01073783          	ld	a5,16(a4)
    80002b80:	00178793          	addi	a5,a5,1
    80002b84:	00f73823          	sd	a5,16(a4)
        return (void *) ((char *) ((char *) toReturn + sizeof(MemoryBlock)));//MEM_BLOCK_SIZE
    80002b88:	02070513          	addi	a0,a4,32
    80002b8c:	fd1ff06f          	j	80002b5c <_ZN15MemoryAllocator9mem_allocEm+0xdc>
        return nullptr;
    80002b90:	00000513          	li	a0,0
    80002b94:	fc9ff06f          	j	80002b5c <_ZN15MemoryAllocator9mem_allocEm+0xdc>
        return nullptr;
    80002b98:	00000513          	li	a0,0
    80002b9c:	fc1ff06f          	j	80002b5c <_ZN15MemoryAllocator9mem_allocEm+0xdc>
        return nullptr;
    80002ba0:	00070513          	mv	a0,a4
    80002ba4:	fb9ff06f          	j	80002b5c <_ZN15MemoryAllocator9mem_allocEm+0xdc>

0000000080002ba8 <_ZN15MemoryAllocator5mergeEPv>:
    return -1;
//unlock

}

void MemoryAllocator::merge(void *curr) {
    80002ba8:	ff010113          	addi	sp,sp,-16
    80002bac:	00813423          	sd	s0,8(sp)
    80002bb0:	01010413          	addi	s0,sp,16
    if (curr == nullptr) return;
    80002bb4:	04050c63          	beqz	a0,80002c0c <_ZN15MemoryAllocator5mergeEPv+0x64>
    MemoryBlock *cur = (MemoryBlock *) curr;
    if (cur->next != nullptr && !((cur->next)->allocated)) {
    80002bb8:	00053783          	ld	a5,0(a0)
    80002bbc:	02078263          	beqz	a5,80002be0 <_ZN15MemoryAllocator5mergeEPv+0x38>
    80002bc0:	0187c703          	lbu	a4,24(a5)
    80002bc4:	00071e63          	bnez	a4,80002be0 <_ZN15MemoryAllocator5mergeEPv+0x38>
        cur->size = cur->next->size + cur->size;
    80002bc8:	0107b703          	ld	a4,16(a5)
    80002bcc:	01053683          	ld	a3,16(a0)
    80002bd0:	00d70733          	add	a4,a4,a3
    80002bd4:	00e53823          	sd	a4,16(a0)
        cur->next = cur->next->next;
    80002bd8:	0007b783          	ld	a5,0(a5)
    80002bdc:	00f53023          	sd	a5,0(a0)
    }
    if (cur->prev != nullptr && !((cur->prev)->allocated)) {
    80002be0:	00853783          	ld	a5,8(a0)
    80002be4:	02078463          	beqz	a5,80002c0c <_ZN15MemoryAllocator5mergeEPv+0x64>
    80002be8:	0187c703          	lbu	a4,24(a5)
    80002bec:	02071063          	bnez	a4,80002c0c <_ZN15MemoryAllocator5mergeEPv+0x64>
        cur->prev->size = cur->prev->size + cur->size;
    80002bf0:	0107b703          	ld	a4,16(a5)
    80002bf4:	01053683          	ld	a3,16(a0)
    80002bf8:	00d70733          	add	a4,a4,a3
    80002bfc:	00e7b823          	sd	a4,16(a5)
        cur->prev->next = cur->next;
    80002c00:	00853783          	ld	a5,8(a0)
    80002c04:	00053703          	ld	a4,0(a0)
    80002c08:	00e7b023          	sd	a4,0(a5)
    }

}
    80002c0c:	00813403          	ld	s0,8(sp)
    80002c10:	01010113          	addi	sp,sp,16
    80002c14:	00008067          	ret

0000000080002c18 <_ZN15MemoryAllocator8mem_freeEPv>:
    if (!ptr) return 0;
    80002c18:	08050a63          	beqz	a0,80002cac <_ZN15MemoryAllocator8mem_freeEPv+0x94>
    80002c1c:	00050713          	mv	a4,a0
    if ((char *) ptr < (char *) HEAP_START_ADDR)return -1;
    80002c20:	00009797          	auipc	a5,0x9
    80002c24:	cc07b783          	ld	a5,-832(a5) # 8000b8e0 <_GLOBAL_OFFSET_TABLE_+0x8>
    80002c28:	0007b783          	ld	a5,0(a5)
    80002c2c:	08f56463          	bltu	a0,a5,80002cb4 <_ZN15MemoryAllocator8mem_freeEPv+0x9c>
    if ((char *) ptr > (char *) HEAP_END_ADDR)return -2;
    80002c30:	00009797          	auipc	a5,0x9
    80002c34:	cf07b783          	ld	a5,-784(a5) # 8000b920 <_GLOBAL_OFFSET_TABLE_+0x48>
    80002c38:	0007b783          	ld	a5,0(a5)
    80002c3c:	08a7e063          	bltu	a5,a0,80002cbc <_ZN15MemoryAllocator8mem_freeEPv+0xa4>
    MemoryBlock *curr = base;
    80002c40:	00009517          	auipc	a0,0x9
    80002c44:	d7053503          	ld	a0,-656(a0) # 8000b9b0 <_ZN15MemoryAllocator4baseE>
    MemoryBlock *find = (MemoryBlock *) ((char *) ptr - sizeof(MemoryBlock));//-MEM_BLOCK_SIZE
    80002c48:	fe070713          	addi	a4,a4,-32
    80002c4c:	0080006f          	j	80002c54 <_ZN15MemoryAllocator8mem_freeEPv+0x3c>
    for (; (char *) find > (char *) curr && curr->next != nullptr; curr = curr->next);
    80002c50:	00078513          	mv	a0,a5
    80002c54:	00e57663          	bgeu	a0,a4,80002c60 <_ZN15MemoryAllocator8mem_freeEPv+0x48>
    80002c58:	00053783          	ld	a5,0(a0)
    80002c5c:	fe079ae3          	bnez	a5,80002c50 <_ZN15MemoryAllocator8mem_freeEPv+0x38>
    if ((char *) find == (char *) curr) {
    80002c60:	06e51263          	bne	a0,a4,80002cc4 <_ZN15MemoryAllocator8mem_freeEPv+0xac>
int MemoryAllocator::mem_free(void *ptr) {
    80002c64:	ff010113          	addi	sp,sp,-16
    80002c68:	00113423          	sd	ra,8(sp)
    80002c6c:	00813023          	sd	s0,0(sp)
    80002c70:	01010413          	addi	s0,sp,16
        curr->allocated = false;
    80002c74:	00050c23          	sb	zero,24(a0)
        freeSpaceInBlks += curr->size;
    80002c78:	01053683          	ld	a3,16(a0)
    80002c7c:	00009717          	auipc	a4,0x9
    80002c80:	d2c70713          	addi	a4,a4,-724 # 8000b9a8 <_ZN15MemoryAllocator15freeSpaceInBlksE>
    80002c84:	00073783          	ld	a5,0(a4)
    80002c88:	00d787b3          	add	a5,a5,a3
    80002c8c:	00f73023          	sd	a5,0(a4)
        merge(curr);
    80002c90:	00000097          	auipc	ra,0x0
    80002c94:	f18080e7          	jalr	-232(ra) # 80002ba8 <_ZN15MemoryAllocator5mergeEPv>
        return 0;
    80002c98:	00000513          	li	a0,0
}
    80002c9c:	00813083          	ld	ra,8(sp)
    80002ca0:	00013403          	ld	s0,0(sp)
    80002ca4:	01010113          	addi	sp,sp,16
    80002ca8:	00008067          	ret
    if (!ptr) return 0;
    80002cac:	00000513          	li	a0,0
    80002cb0:	00008067          	ret
    if ((char *) ptr < (char *) HEAP_START_ADDR)return -1;
    80002cb4:	fff00513          	li	a0,-1
    80002cb8:	00008067          	ret
    if ((char *) ptr > (char *) HEAP_END_ADDR)return -2;
    80002cbc:	ffe00513          	li	a0,-2
    80002cc0:	00008067          	ret
    return -1;
    80002cc4:	fff00513          	li	a0,-1
}
    80002cc8:	00008067          	ret

0000000080002ccc <_ZN15MemoryAllocator9print_blkEP11MemoryBlock>:

void MemoryAllocator::print_blk(MemoryBlock *blk) {
    80002ccc:	fe010113          	addi	sp,sp,-32
    80002cd0:	00113c23          	sd	ra,24(sp)
    80002cd4:	00813823          	sd	s0,16(sp)
    80002cd8:	00913423          	sd	s1,8(sp)
    80002cdc:	02010413          	addi	s0,sp,32
    80002ce0:	00050493          	mv	s1,a0

    printStr("blk:\t\0");
    80002ce4:	00006517          	auipc	a0,0x6
    80002ce8:	58c50513          	addi	a0,a0,1420 # 80009270 <CONSOLE_STATUS+0x260>
    80002cec:	00000097          	auipc	ra,0x0
    80002cf0:	158080e7          	jalr	344(ra) # 80002e44 <printStr>
    printInt((unsigned long) blk);
    80002cf4:	00048513          	mv	a0,s1
    80002cf8:	00000097          	auipc	ra,0x0
    80002cfc:	174080e7          	jalr	372(ra) # 80002e6c <printInt>
    printStr("\nnext:\t\0");
    80002d00:	00006517          	auipc	a0,0x6
    80002d04:	57850513          	addi	a0,a0,1400 # 80009278 <CONSOLE_STATUS+0x268>
    80002d08:	00000097          	auipc	ra,0x0
    80002d0c:	13c080e7          	jalr	316(ra) # 80002e44 <printStr>
    printInt((unsigned long) blk->next);
    80002d10:	0004b503          	ld	a0,0(s1)
    80002d14:	00000097          	auipc	ra,0x0
    80002d18:	158080e7          	jalr	344(ra) # 80002e6c <printInt>
    printStr("\nprev:\t\0");
    80002d1c:	00006517          	auipc	a0,0x6
    80002d20:	56c50513          	addi	a0,a0,1388 # 80009288 <CONSOLE_STATUS+0x278>
    80002d24:	00000097          	auipc	ra,0x0
    80002d28:	120080e7          	jalr	288(ra) # 80002e44 <printStr>
    printInt((unsigned long) blk->prev);
    80002d2c:	0084b503          	ld	a0,8(s1)
    80002d30:	00000097          	auipc	ra,0x0
    80002d34:	13c080e7          	jalr	316(ra) # 80002e6c <printInt>
    printStr("\nsize:\t\0");
    80002d38:	00006517          	auipc	a0,0x6
    80002d3c:	56050513          	addi	a0,a0,1376 # 80009298 <CONSOLE_STATUS+0x288>
    80002d40:	00000097          	auipc	ra,0x0
    80002d44:	104080e7          	jalr	260(ra) # 80002e44 <printStr>
    printInt(blk->size);
    80002d48:	0104b503          	ld	a0,16(s1)
    80002d4c:	00000097          	auipc	ra,0x0
    80002d50:	120080e7          	jalr	288(ra) # 80002e6c <printInt>
    printStr("\nstat:\t\0");
    80002d54:	00006517          	auipc	a0,0x6
    80002d58:	55450513          	addi	a0,a0,1364 # 800092a8 <CONSOLE_STATUS+0x298>
    80002d5c:	00000097          	auipc	ra,0x0
    80002d60:	0e8080e7          	jalr	232(ra) # 80002e44 <printStr>
    printInt(blk->allocated);
    80002d64:	0184c503          	lbu	a0,24(s1)
    80002d68:	00000097          	auipc	ra,0x0
    80002d6c:	104080e7          	jalr	260(ra) # 80002e6c <printInt>
    printStr("\n");
    80002d70:	00007517          	auipc	a0,0x7
    80002d74:	85050513          	addi	a0,a0,-1968 # 800095c0 <CONSOLE_STATUS+0x5b0>
    80002d78:	00000097          	auipc	ra,0x0
    80002d7c:	0cc080e7          	jalr	204(ra) # 80002e44 <printStr>
}
    80002d80:	01813083          	ld	ra,24(sp)
    80002d84:	01013403          	ld	s0,16(sp)
    80002d88:	00813483          	ld	s1,8(sp)
    80002d8c:	02010113          	addi	sp,sp,32
    80002d90:	00008067          	ret

0000000080002d94 <_ZN15MemoryAllocator15print_allocatorEv>:

void MemoryAllocator::print_allocator() {
    80002d94:	fe010113          	addi	sp,sp,-32
    80002d98:	00113c23          	sd	ra,24(sp)
    80002d9c:	00813823          	sd	s0,16(sp)
    80002da0:	00913423          	sd	s1,8(sp)
    80002da4:	02010413          	addi	s0,sp,32
    printInt(freeSpaceInBlks);
    80002da8:	00009497          	auipc	s1,0x9
    80002dac:	c0048493          	addi	s1,s1,-1024 # 8000b9a8 <_ZN15MemoryAllocator15freeSpaceInBlksE>
    80002db0:	0004b503          	ld	a0,0(s1)
    80002db4:	00000097          	auipc	ra,0x0
    80002db8:	0b8080e7          	jalr	184(ra) # 80002e6c <printInt>
    printStr("\n");
    80002dbc:	00007517          	auipc	a0,0x7
    80002dc0:	80450513          	addi	a0,a0,-2044 # 800095c0 <CONSOLE_STATUS+0x5b0>
    80002dc4:	00000097          	auipc	ra,0x0
    80002dc8:	080080e7          	jalr	128(ra) # 80002e44 <printStr>
    printInt((uint64) baseAddress);
    80002dcc:	0104b503          	ld	a0,16(s1)
    80002dd0:	00000097          	auipc	ra,0x0
    80002dd4:	09c080e7          	jalr	156(ra) # 80002e6c <printInt>
    printStr("\n");
    80002dd8:	00006517          	auipc	a0,0x6
    80002ddc:	7e850513          	addi	a0,a0,2024 # 800095c0 <CONSOLE_STATUS+0x5b0>
    80002de0:	00000097          	auipc	ra,0x0
    80002de4:	064080e7          	jalr	100(ra) # 80002e44 <printStr>
    printInt((uint64) base);
    80002de8:	0084b503          	ld	a0,8(s1)
    80002dec:	00000097          	auipc	ra,0x0
    80002df0:	080080e7          	jalr	128(ra) # 80002e6c <printInt>
    printStr("\n");
    80002df4:	00006517          	auipc	a0,0x6
    80002df8:	7cc50513          	addi	a0,a0,1996 # 800095c0 <CONSOLE_STATUS+0x5b0>
    80002dfc:	00000097          	auipc	ra,0x0
    80002e00:	048080e7          	jalr	72(ra) # 80002e44 <printStr>
    for (MemoryBlock *curr = base; curr; curr = curr->next) {
    80002e04:	0084b483          	ld	s1,8(s1)
    80002e08:	02048463          	beqz	s1,80002e30 <_ZN15MemoryAllocator15print_allocatorEv+0x9c>
        print_blk(curr);
    80002e0c:	00048513          	mv	a0,s1
    80002e10:	00000097          	auipc	ra,0x0
    80002e14:	ebc080e7          	jalr	-324(ra) # 80002ccc <_ZN15MemoryAllocator9print_blkEP11MemoryBlock>
        printStr("\n");
    80002e18:	00006517          	auipc	a0,0x6
    80002e1c:	7a850513          	addi	a0,a0,1960 # 800095c0 <CONSOLE_STATUS+0x5b0>
    80002e20:	00000097          	auipc	ra,0x0
    80002e24:	024080e7          	jalr	36(ra) # 80002e44 <printStr>
    for (MemoryBlock *curr = base; curr; curr = curr->next) {
    80002e28:	0004b483          	ld	s1,0(s1)
    80002e2c:	fddff06f          	j	80002e08 <_ZN15MemoryAllocator15print_allocatorEv+0x74>
    }
    80002e30:	01813083          	ld	ra,24(sp)
    80002e34:	01013403          	ld	s0,16(sp)
    80002e38:	00813483          	ld	s1,8(sp)
    80002e3c:	02010113          	addi	sp,sp,32
    80002e40:	00008067          	ret

0000000080002e44 <printStr>:

#include "../lib/console.h" //kad uradis konzolu skloni
#include "../h/print.hpp"
#include "../test/printing.hpp"

void printStr(char const *string) {
    80002e44:	ff010113          	addi	sp,sp,-16
    80002e48:	00113423          	sd	ra,8(sp)
    80002e4c:	00813023          	sd	s0,0(sp)
    80002e50:	01010413          	addi	s0,sp,16
         __putc(*string);
         string++;
     }

 */
    printString(string);
    80002e54:	00002097          	auipc	ra,0x2
    80002e58:	5f8080e7          	jalr	1528(ra) # 8000544c <_Z11printStringPKc>
    //Riscv::ms_sstatus(sstatus & Riscv::SSTATUS_SIE ? Riscv::SSTATUS_SIE : 0);
}
    80002e5c:	00813083          	ld	ra,8(sp)
    80002e60:	00013403          	ld	s0,0(sp)
    80002e64:	01010113          	addi	sp,sp,16
    80002e68:	00008067          	ret

0000000080002e6c <printInt>:

void printInt(uint64 integer) {
    80002e6c:	ff010113          	addi	sp,sp,-16
    80002e70:	00113423          	sd	ra,8(sp)
    80002e74:	00813023          	sd	s0,0(sp)
    80002e78:	01010413          	addi	s0,sp,16
    // uint64 sstatus = Riscv::r_sstatus();
    // Riscv::mc_sstatus(Riscv::SSTATUS_SIE);
    printInt(integer, 10, 0);
    80002e7c:	00000613          	li	a2,0
    80002e80:	00a00593          	li	a1,10
    80002e84:	0005051b          	sext.w	a0,a0
    80002e88:	00002097          	auipc	ra,0x2
    80002e8c:	774080e7          	jalr	1908(ra) # 800055fc <_Z8printIntiii>
    // Riscv::ms_sstatus(sstatus & Riscv::SSTATUS_SIE ? Riscv::SSTATUS_SIE : 0);
}
    80002e90:	00813083          	ld	ra,8(sp)
    80002e94:	00013403          	ld	s0,0(sp)
    80002e98:	01010113          	addi	sp,sp,16
    80002e9c:	00008067          	ret

0000000080002ea0 <_Z13printHexDigith>:

void printHexDigit(uint8 digit) {
    80002ea0:	ff010113          	addi	sp,sp,-16
    80002ea4:	00113423          	sd	ra,8(sp)
    80002ea8:	00813023          	sd	s0,0(sp)
    80002eac:	01010413          	addi	s0,sp,16

    if (digit < 10) {
    80002eb0:	00900793          	li	a5,9
    80002eb4:	02a7e263          	bltu	a5,a0,80002ed8 <_Z13printHexDigith+0x38>
        putc('0' + digit);
    80002eb8:	0305051b          	addiw	a0,a0,48
    80002ebc:	0ff57513          	andi	a0,a0,255
    80002ec0:	ffffe097          	auipc	ra,0xffffe
    80002ec4:	58c080e7          	jalr	1420(ra) # 8000144c <putc>
    } else {
        putc('a' + (digit - 10));
    }
}
    80002ec8:	00813083          	ld	ra,8(sp)
    80002ecc:	00013403          	ld	s0,0(sp)
    80002ed0:	01010113          	addi	sp,sp,16
    80002ed4:	00008067          	ret
        putc('a' + (digit - 10));
    80002ed8:	0575051b          	addiw	a0,a0,87
    80002edc:	0ff57513          	andi	a0,a0,255
    80002ee0:	ffffe097          	auipc	ra,0xffffe
    80002ee4:	56c080e7          	jalr	1388(ra) # 8000144c <putc>
}
    80002ee8:	fe1ff06f          	j	80002ec8 <_Z13printHexDigith+0x28>

0000000080002eec <_Z14printUint64Hexm>:

void printUint64Hex(uint64 num) {
    80002eec:	fd010113          	addi	sp,sp,-48
    80002ef0:	02113423          	sd	ra,40(sp)
    80002ef4:	02813023          	sd	s0,32(sp)
    80002ef8:	00913c23          	sd	s1,24(sp)
    80002efc:	03010413          	addi	s0,sp,48
    const int HEX_DIGITS = 16;
    char buffer[HEX_DIGITS];
    int index = HEX_DIGITS - 1;


    if (num == 0) {
    80002f00:	02050e63          	beqz	a0,80002f3c <_Z14printUint64Hexm+0x50>
    int index = HEX_DIGITS - 1;
    80002f04:	00f00793          	li	a5,15
        putc('0');
        return;
    }

    while (num > 0 && index >= 0) {
    80002f08:	04050a63          	beqz	a0,80002f5c <_Z14printUint64Hexm+0x70>
    80002f0c:	0407c863          	bltz	a5,80002f5c <_Z14printUint64Hexm+0x70>
        buffer[index--] = "0123456789abcdef"[num & 0xF];
    80002f10:	00f57693          	andi	a3,a0,15
    80002f14:	00006717          	auipc	a4,0x6
    80002f18:	3a470713          	addi	a4,a4,932 # 800092b8 <CONSOLE_STATUS+0x2a8>
    80002f1c:	00d70733          	add	a4,a4,a3
    80002f20:	00074683          	lbu	a3,0(a4)
    80002f24:	fe040713          	addi	a4,s0,-32
    80002f28:	00f70733          	add	a4,a4,a5
    80002f2c:	fed70823          	sb	a3,-16(a4)
        num >>= 4;
    80002f30:	00455513          	srli	a0,a0,0x4
        buffer[index--] = "0123456789abcdef"[num & 0xF];
    80002f34:	fff7879b          	addiw	a5,a5,-1
    while (num > 0 && index >= 0) {
    80002f38:	fd1ff06f          	j	80002f08 <_Z14printUint64Hexm+0x1c>
        putc('0');
    80002f3c:	03000513          	li	a0,48
    80002f40:	ffffe097          	auipc	ra,0xffffe
    80002f44:	50c080e7          	jalr	1292(ra) # 8000144c <putc>
    }

    for (index = 0; index < HEX_DIGITS; ++index) {
        putc(buffer[index]);
    }
}
    80002f48:	02813083          	ld	ra,40(sp)
    80002f4c:	02013403          	ld	s0,32(sp)
    80002f50:	01813483          	ld	s1,24(sp)
    80002f54:	03010113          	addi	sp,sp,48
    80002f58:	00008067          	ret
    while (index >= 0) {
    80002f5c:	0007ce63          	bltz	a5,80002f78 <_Z14printUint64Hexm+0x8c>
        buffer[index--] = '0';
    80002f60:	fe040713          	addi	a4,s0,-32
    80002f64:	00f70733          	add	a4,a4,a5
    80002f68:	03000693          	li	a3,48
    80002f6c:	fed70823          	sb	a3,-16(a4)
    80002f70:	fff7879b          	addiw	a5,a5,-1
    while (index >= 0) {
    80002f74:	fe9ff06f          	j	80002f5c <_Z14printUint64Hexm+0x70>
    for (index = 0; index < HEX_DIGITS; ++index) {
    80002f78:	00000493          	li	s1,0
    80002f7c:	00f00793          	li	a5,15
    80002f80:	fc97c4e3          	blt	a5,s1,80002f48 <_Z14printUint64Hexm+0x5c>
        putc(buffer[index]);
    80002f84:	fe040793          	addi	a5,s0,-32
    80002f88:	009787b3          	add	a5,a5,s1
    80002f8c:	ff07c503          	lbu	a0,-16(a5)
    80002f90:	ffffe097          	auipc	ra,0xffffe
    80002f94:	4bc080e7          	jalr	1212(ra) # 8000144c <putc>
    for (index = 0; index < HEX_DIGITS; ++index) {
    80002f98:	0014849b          	addiw	s1,s1,1
    80002f9c:	fe1ff06f          	j	80002f7c <_Z14printUint64Hexm+0x90>

0000000080002fa0 <printRegister>:

void printRegister(uint64 reg) {
    80002fa0:	ff010113          	addi	sp,sp,-16
    80002fa4:	00113423          	sd	ra,8(sp)
    80002fa8:	00813023          	sd	s0,0(sp)
    80002fac:	01010413          	addi	s0,sp,16
    // uint64 sstatus = Riscv::r_sstatus();
    //  Riscv::mc_sstatus(Riscv::SSTATUS_SIE);
    printUint64Hex(reg);
    80002fb0:	00000097          	auipc	ra,0x0
    80002fb4:	f3c080e7          	jalr	-196(ra) # 80002eec <_Z14printUint64Hexm>
    putc('\n');
    80002fb8:	00a00513          	li	a0,10
    80002fbc:	ffffe097          	auipc	ra,0xffffe
    80002fc0:	490080e7          	jalr	1168(ra) # 8000144c <putc>
    //  Riscv::ms_sstatus(sstatus & Riscv::SSTATUS_SIE ? Riscv::SSTATUS_SIE : 0);
    80002fc4:	00813083          	ld	ra,8(sp)
    80002fc8:	00013403          	ld	s0,0(sp)
    80002fcc:	01010113          	addi	sp,sp,16
    80002fd0:	00008067          	ret

0000000080002fd4 <_ZL16producerKeyboardPv>:
    sem_t wait;
};

static volatile int threadEnd = 0;

static void producerKeyboard(void *arg) {
    80002fd4:	fe010113          	addi	sp,sp,-32
    80002fd8:	00113c23          	sd	ra,24(sp)
    80002fdc:	00813823          	sd	s0,16(sp)
    80002fe0:	00913423          	sd	s1,8(sp)
    80002fe4:	01213023          	sd	s2,0(sp)
    80002fe8:	02010413          	addi	s0,sp,32
    80002fec:	00050493          	mv	s1,a0
    struct thread_data *data = (struct thread_data *) arg;

    int key;
    int i = 0;
    80002ff0:	00000913          	li	s2,0
    80002ff4:	00c0006f          	j	80003000 <_ZL16producerKeyboardPv+0x2c>
    while ((key = getc()) != 0x30) {
        data->buffer->put(key);
        i++;

        if (i % (10 * data->id) == 0) {
            thread_dispatch();
    80002ff8:	ffffe097          	auipc	ra,0xffffe
    80002ffc:	294080e7          	jalr	660(ra) # 8000128c <thread_dispatch>
    while ((key = getc()) != 0x30) {
    80003000:	ffffe097          	auipc	ra,0xffffe
    80003004:	474080e7          	jalr	1140(ra) # 80001474 <getc>
    80003008:	0005059b          	sext.w	a1,a0
    8000300c:	03000793          	li	a5,48
    80003010:	02f58a63          	beq	a1,a5,80003044 <_ZL16producerKeyboardPv+0x70>
        data->buffer->put(key);
    80003014:	0084b503          	ld	a0,8(s1)
    80003018:	00003097          	auipc	ra,0x3
    8000301c:	42c080e7          	jalr	1068(ra) # 80006444 <_ZN6Buffer3putEi>
        i++;
    80003020:	0019071b          	addiw	a4,s2,1
    80003024:	0007091b          	sext.w	s2,a4
        if (i % (10 * data->id) == 0) {
    80003028:	0004a683          	lw	a3,0(s1)
    8000302c:	0026979b          	slliw	a5,a3,0x2
    80003030:	00d787bb          	addw	a5,a5,a3
    80003034:	0017979b          	slliw	a5,a5,0x1
    80003038:	02f767bb          	remw	a5,a4,a5
    8000303c:	fc0792e3          	bnez	a5,80003000 <_ZL16producerKeyboardPv+0x2c>
    80003040:	fb9ff06f          	j	80002ff8 <_ZL16producerKeyboardPv+0x24>
        }
    }

    threadEnd = 1;
    80003044:	00100793          	li	a5,1
    80003048:	00009717          	auipc	a4,0x9
    8000304c:	96f72c23          	sw	a5,-1672(a4) # 8000b9c0 <_ZL9threadEnd>
    data->buffer->put('!');
    80003050:	02100593          	li	a1,33
    80003054:	0084b503          	ld	a0,8(s1)
    80003058:	00003097          	auipc	ra,0x3
    8000305c:	3ec080e7          	jalr	1004(ra) # 80006444 <_ZN6Buffer3putEi>

    sem_signal(data->wait);
    80003060:	0104b503          	ld	a0,16(s1)
    80003064:	ffffe097          	auipc	ra,0xffffe
    80003068:	378080e7          	jalr	888(ra) # 800013dc <sem_signal>
}
    8000306c:	01813083          	ld	ra,24(sp)
    80003070:	01013403          	ld	s0,16(sp)
    80003074:	00813483          	ld	s1,8(sp)
    80003078:	00013903          	ld	s2,0(sp)
    8000307c:	02010113          	addi	sp,sp,32
    80003080:	00008067          	ret

0000000080003084 <_ZL8producerPv>:

static void producer(void *arg) {
    80003084:	fe010113          	addi	sp,sp,-32
    80003088:	00113c23          	sd	ra,24(sp)
    8000308c:	00813823          	sd	s0,16(sp)
    80003090:	00913423          	sd	s1,8(sp)
    80003094:	01213023          	sd	s2,0(sp)
    80003098:	02010413          	addi	s0,sp,32
    8000309c:	00050493          	mv	s1,a0
    struct thread_data *data = (struct thread_data *) arg;

    int i = 0;
    800030a0:	00000913          	li	s2,0
    800030a4:	00c0006f          	j	800030b0 <_ZL8producerPv+0x2c>
    while (!threadEnd) {
        data->buffer->put(data->id + '0');
        i++;

        if (i % (10 * data->id) == 0) {
            thread_dispatch();
    800030a8:	ffffe097          	auipc	ra,0xffffe
    800030ac:	1e4080e7          	jalr	484(ra) # 8000128c <thread_dispatch>
    while (!threadEnd) {
    800030b0:	00009797          	auipc	a5,0x9
    800030b4:	9107a783          	lw	a5,-1776(a5) # 8000b9c0 <_ZL9threadEnd>
    800030b8:	02079e63          	bnez	a5,800030f4 <_ZL8producerPv+0x70>
        data->buffer->put(data->id + '0');
    800030bc:	0004a583          	lw	a1,0(s1)
    800030c0:	0305859b          	addiw	a1,a1,48
    800030c4:	0084b503          	ld	a0,8(s1)
    800030c8:	00003097          	auipc	ra,0x3
    800030cc:	37c080e7          	jalr	892(ra) # 80006444 <_ZN6Buffer3putEi>
        i++;
    800030d0:	0019071b          	addiw	a4,s2,1
    800030d4:	0007091b          	sext.w	s2,a4
        if (i % (10 * data->id) == 0) {
    800030d8:	0004a683          	lw	a3,0(s1)
    800030dc:	0026979b          	slliw	a5,a3,0x2
    800030e0:	00d787bb          	addw	a5,a5,a3
    800030e4:	0017979b          	slliw	a5,a5,0x1
    800030e8:	02f767bb          	remw	a5,a4,a5
    800030ec:	fc0792e3          	bnez	a5,800030b0 <_ZL8producerPv+0x2c>
    800030f0:	fb9ff06f          	j	800030a8 <_ZL8producerPv+0x24>
        }
    }

    sem_signal(data->wait);
    800030f4:	0104b503          	ld	a0,16(s1)
    800030f8:	ffffe097          	auipc	ra,0xffffe
    800030fc:	2e4080e7          	jalr	740(ra) # 800013dc <sem_signal>
}
    80003100:	01813083          	ld	ra,24(sp)
    80003104:	01013403          	ld	s0,16(sp)
    80003108:	00813483          	ld	s1,8(sp)
    8000310c:	00013903          	ld	s2,0(sp)
    80003110:	02010113          	addi	sp,sp,32
    80003114:	00008067          	ret

0000000080003118 <_ZL8consumerPv>:

static void consumer(void *arg) {
    80003118:	fd010113          	addi	sp,sp,-48
    8000311c:	02113423          	sd	ra,40(sp)
    80003120:	02813023          	sd	s0,32(sp)
    80003124:	00913c23          	sd	s1,24(sp)
    80003128:	01213823          	sd	s2,16(sp)
    8000312c:	01313423          	sd	s3,8(sp)
    80003130:	03010413          	addi	s0,sp,48
    80003134:	00050913          	mv	s2,a0
    struct thread_data *data = (struct thread_data *) arg;

    int i = 0;
    80003138:	00000993          	li	s3,0
    8000313c:	01c0006f          	j	80003158 <_ZL8consumerPv+0x40>
        i++;

        putc(key);

        if (i % (5 * data->id) == 0) {
            thread_dispatch();
    80003140:	ffffe097          	auipc	ra,0xffffe
    80003144:	14c080e7          	jalr	332(ra) # 8000128c <thread_dispatch>
    80003148:	0500006f          	j	80003198 <_ZL8consumerPv+0x80>
        }

        if (i % 80 == 0) {
            putc('\n');
    8000314c:	00a00513          	li	a0,10
    80003150:	ffffe097          	auipc	ra,0xffffe
    80003154:	2fc080e7          	jalr	764(ra) # 8000144c <putc>
    while (!threadEnd) {
    80003158:	00009797          	auipc	a5,0x9
    8000315c:	8687a783          	lw	a5,-1944(a5) # 8000b9c0 <_ZL9threadEnd>
    80003160:	06079063          	bnez	a5,800031c0 <_ZL8consumerPv+0xa8>
        int key = data->buffer->get();
    80003164:	00893503          	ld	a0,8(s2)
    80003168:	00003097          	auipc	ra,0x3
    8000316c:	36c080e7          	jalr	876(ra) # 800064d4 <_ZN6Buffer3getEv>
        i++;
    80003170:	0019849b          	addiw	s1,s3,1
    80003174:	0004899b          	sext.w	s3,s1
        putc(key);
    80003178:	0ff57513          	andi	a0,a0,255
    8000317c:	ffffe097          	auipc	ra,0xffffe
    80003180:	2d0080e7          	jalr	720(ra) # 8000144c <putc>
        if (i % (5 * data->id) == 0) {
    80003184:	00092703          	lw	a4,0(s2)
    80003188:	0027179b          	slliw	a5,a4,0x2
    8000318c:	00e787bb          	addw	a5,a5,a4
    80003190:	02f4e7bb          	remw	a5,s1,a5
    80003194:	fa0786e3          	beqz	a5,80003140 <_ZL8consumerPv+0x28>
        if (i % 80 == 0) {
    80003198:	05000793          	li	a5,80
    8000319c:	02f4e4bb          	remw	s1,s1,a5
    800031a0:	fa049ce3          	bnez	s1,80003158 <_ZL8consumerPv+0x40>
    800031a4:	fa9ff06f          	j	8000314c <_ZL8consumerPv+0x34>
        }
    }

    while (data->buffer->getCnt() > 0) {
        int key = data->buffer->get();
    800031a8:	00893503          	ld	a0,8(s2)
    800031ac:	00003097          	auipc	ra,0x3
    800031b0:	328080e7          	jalr	808(ra) # 800064d4 <_ZN6Buffer3getEv>
        putc(key);
    800031b4:	0ff57513          	andi	a0,a0,255
    800031b8:	ffffe097          	auipc	ra,0xffffe
    800031bc:	294080e7          	jalr	660(ra) # 8000144c <putc>
    while (data->buffer->getCnt() > 0) {
    800031c0:	00893503          	ld	a0,8(s2)
    800031c4:	00003097          	auipc	ra,0x3
    800031c8:	39c080e7          	jalr	924(ra) # 80006560 <_ZN6Buffer6getCntEv>
    800031cc:	fca04ee3          	bgtz	a0,800031a8 <_ZL8consumerPv+0x90>
    }

    sem_signal(data->wait);
    800031d0:	01093503          	ld	a0,16(s2)
    800031d4:	ffffe097          	auipc	ra,0xffffe
    800031d8:	208080e7          	jalr	520(ra) # 800013dc <sem_signal>
}
    800031dc:	02813083          	ld	ra,40(sp)
    800031e0:	02013403          	ld	s0,32(sp)
    800031e4:	01813483          	ld	s1,24(sp)
    800031e8:	01013903          	ld	s2,16(sp)
    800031ec:	00813983          	ld	s3,8(sp)
    800031f0:	03010113          	addi	sp,sp,48
    800031f4:	00008067          	ret

00000000800031f8 <_Z22producerConsumer_C_APIv>:

void producerConsumer_C_API() {
    800031f8:	f9010113          	addi	sp,sp,-112
    800031fc:	06113423          	sd	ra,104(sp)
    80003200:	06813023          	sd	s0,96(sp)
    80003204:	04913c23          	sd	s1,88(sp)
    80003208:	05213823          	sd	s2,80(sp)
    8000320c:	05313423          	sd	s3,72(sp)
    80003210:	05413023          	sd	s4,64(sp)
    80003214:	03513c23          	sd	s5,56(sp)
    80003218:	03613823          	sd	s6,48(sp)
    8000321c:	07010413          	addi	s0,sp,112
        sem_wait(waitForAll);
    }

    sem_close(waitForAll);

    delete buffer;
    80003220:	00010b13          	mv	s6,sp
    printString("Unesite broj proizvodjaca?\n");
    80003224:	00006517          	auipc	a0,0x6
    80003228:	0ac50513          	addi	a0,a0,172 # 800092d0 <CONSOLE_STATUS+0x2c0>
    8000322c:	00002097          	auipc	ra,0x2
    80003230:	220080e7          	jalr	544(ra) # 8000544c <_Z11printStringPKc>
    getString(input, 30);
    80003234:	01e00593          	li	a1,30
    80003238:	fa040493          	addi	s1,s0,-96
    8000323c:	00048513          	mv	a0,s1
    80003240:	00002097          	auipc	ra,0x2
    80003244:	294080e7          	jalr	660(ra) # 800054d4 <_Z9getStringPci>
    threadNum = stringToInt(input);
    80003248:	00048513          	mv	a0,s1
    8000324c:	00002097          	auipc	ra,0x2
    80003250:	360080e7          	jalr	864(ra) # 800055ac <_Z11stringToIntPKc>
    80003254:	00050913          	mv	s2,a0
    printString("Unesite velicinu bafera?\n");
    80003258:	00006517          	auipc	a0,0x6
    8000325c:	09850513          	addi	a0,a0,152 # 800092f0 <CONSOLE_STATUS+0x2e0>
    80003260:	00002097          	auipc	ra,0x2
    80003264:	1ec080e7          	jalr	492(ra) # 8000544c <_Z11printStringPKc>
    getString(input, 30);
    80003268:	01e00593          	li	a1,30
    8000326c:	00048513          	mv	a0,s1
    80003270:	00002097          	auipc	ra,0x2
    80003274:	264080e7          	jalr	612(ra) # 800054d4 <_Z9getStringPci>
    n = stringToInt(input);
    80003278:	00048513          	mv	a0,s1
    8000327c:	00002097          	auipc	ra,0x2
    80003280:	330080e7          	jalr	816(ra) # 800055ac <_Z11stringToIntPKc>
    80003284:	00050493          	mv	s1,a0
    printString("Broj proizvodjaca "); printInt(threadNum);
    80003288:	00006517          	auipc	a0,0x6
    8000328c:	08850513          	addi	a0,a0,136 # 80009310 <CONSOLE_STATUS+0x300>
    80003290:	00002097          	auipc	ra,0x2
    80003294:	1bc080e7          	jalr	444(ra) # 8000544c <_Z11printStringPKc>
    80003298:	00000613          	li	a2,0
    8000329c:	00a00593          	li	a1,10
    800032a0:	00090513          	mv	a0,s2
    800032a4:	00002097          	auipc	ra,0x2
    800032a8:	358080e7          	jalr	856(ra) # 800055fc <_Z8printIntiii>
    printString(" i velicina bafera "); printInt(n);
    800032ac:	00006517          	auipc	a0,0x6
    800032b0:	07c50513          	addi	a0,a0,124 # 80009328 <CONSOLE_STATUS+0x318>
    800032b4:	00002097          	auipc	ra,0x2
    800032b8:	198080e7          	jalr	408(ra) # 8000544c <_Z11printStringPKc>
    800032bc:	00000613          	li	a2,0
    800032c0:	00a00593          	li	a1,10
    800032c4:	00048513          	mv	a0,s1
    800032c8:	00002097          	auipc	ra,0x2
    800032cc:	334080e7          	jalr	820(ra) # 800055fc <_Z8printIntiii>
    printString(".\n");
    800032d0:	00006517          	auipc	a0,0x6
    800032d4:	07050513          	addi	a0,a0,112 # 80009340 <CONSOLE_STATUS+0x330>
    800032d8:	00002097          	auipc	ra,0x2
    800032dc:	174080e7          	jalr	372(ra) # 8000544c <_Z11printStringPKc>
    if(threadNum > n) {
    800032e0:	0324c463          	blt	s1,s2,80003308 <_Z22producerConsumer_C_APIv+0x110>
    } else if (threadNum < 1) {
    800032e4:	03205c63          	blez	s2,8000331c <_Z22producerConsumer_C_APIv+0x124>
    Buffer *buffer = new Buffer(n);
    800032e8:	03800513          	li	a0,56
    800032ec:	fffff097          	auipc	ra,0xfffff
    800032f0:	b18080e7          	jalr	-1256(ra) # 80001e04 <_Znwm>
    800032f4:	00050a13          	mv	s4,a0
    800032f8:	00048593          	mv	a1,s1
    800032fc:	00003097          	auipc	ra,0x3
    80003300:	0ac080e7          	jalr	172(ra) # 800063a8 <_ZN6BufferC1Ei>
    80003304:	0300006f          	j	80003334 <_Z22producerConsumer_C_APIv+0x13c>
        printString("Broj proizvodjaca ne sme biti manji od velicine bafera!\n");
    80003308:	00006517          	auipc	a0,0x6
    8000330c:	04050513          	addi	a0,a0,64 # 80009348 <CONSOLE_STATUS+0x338>
    80003310:	00002097          	auipc	ra,0x2
    80003314:	13c080e7          	jalr	316(ra) # 8000544c <_Z11printStringPKc>
        return;
    80003318:	0140006f          	j	8000332c <_Z22producerConsumer_C_APIv+0x134>
        printString("Broj proizvodjaca mora biti veci od nula!\n");
    8000331c:	00006517          	auipc	a0,0x6
    80003320:	06c50513          	addi	a0,a0,108 # 80009388 <CONSOLE_STATUS+0x378>
    80003324:	00002097          	auipc	ra,0x2
    80003328:	128080e7          	jalr	296(ra) # 8000544c <_Z11printStringPKc>
        return;
    8000332c:	000b0113          	mv	sp,s6
    80003330:	1500006f          	j	80003480 <_Z22producerConsumer_C_APIv+0x288>
    sem_open(&waitForAll, 0);
    80003334:	00000593          	li	a1,0
    80003338:	00008517          	auipc	a0,0x8
    8000333c:	69050513          	addi	a0,a0,1680 # 8000b9c8 <_ZL10waitForAll>
    80003340:	ffffe097          	auipc	ra,0xffffe
    80003344:	fac080e7          	jalr	-84(ra) # 800012ec <sem_open>
    thread_t threads[threadNum];
    80003348:	00391793          	slli	a5,s2,0x3
    8000334c:	00f78793          	addi	a5,a5,15
    80003350:	ff07f793          	andi	a5,a5,-16
    80003354:	40f10133          	sub	sp,sp,a5
    80003358:	00010a93          	mv	s5,sp
    struct thread_data data[threadNum + 1];
    8000335c:	0019071b          	addiw	a4,s2,1
    80003360:	00171793          	slli	a5,a4,0x1
    80003364:	00e787b3          	add	a5,a5,a4
    80003368:	00379793          	slli	a5,a5,0x3
    8000336c:	00f78793          	addi	a5,a5,15
    80003370:	ff07f793          	andi	a5,a5,-16
    80003374:	40f10133          	sub	sp,sp,a5
    80003378:	00010993          	mv	s3,sp
    data[threadNum].id = threadNum;
    8000337c:	00191613          	slli	a2,s2,0x1
    80003380:	012607b3          	add	a5,a2,s2
    80003384:	00379793          	slli	a5,a5,0x3
    80003388:	00f987b3          	add	a5,s3,a5
    8000338c:	0127a023          	sw	s2,0(a5)
    data[threadNum].buffer = buffer;
    80003390:	0147b423          	sd	s4,8(a5)
    data[threadNum].wait = waitForAll;
    80003394:	00008717          	auipc	a4,0x8
    80003398:	63473703          	ld	a4,1588(a4) # 8000b9c8 <_ZL10waitForAll>
    8000339c:	00e7b823          	sd	a4,16(a5)
    thread_create(&consumerThread, consumer, data + threadNum);
    800033a0:	00078613          	mv	a2,a5
    800033a4:	00000597          	auipc	a1,0x0
    800033a8:	d7458593          	addi	a1,a1,-652 # 80003118 <_ZL8consumerPv>
    800033ac:	f9840513          	addi	a0,s0,-104
    800033b0:	ffffe097          	auipc	ra,0xffffe
    800033b4:	e3c080e7          	jalr	-452(ra) # 800011ec <thread_create>
    for (int i = 0; i < threadNum; i++) {
    800033b8:	00000493          	li	s1,0
    800033bc:	0280006f          	j	800033e4 <_Z22producerConsumer_C_APIv+0x1ec>
        thread_create(threads + i,
    800033c0:	00000597          	auipc	a1,0x0
    800033c4:	c1458593          	addi	a1,a1,-1004 # 80002fd4 <_ZL16producerKeyboardPv>
                      data + i);
    800033c8:	00179613          	slli	a2,a5,0x1
    800033cc:	00f60633          	add	a2,a2,a5
    800033d0:	00361613          	slli	a2,a2,0x3
        thread_create(threads + i,
    800033d4:	00c98633          	add	a2,s3,a2
    800033d8:	ffffe097          	auipc	ra,0xffffe
    800033dc:	e14080e7          	jalr	-492(ra) # 800011ec <thread_create>
    for (int i = 0; i < threadNum; i++) {
    800033e0:	0014849b          	addiw	s1,s1,1
    800033e4:	0524d263          	bge	s1,s2,80003428 <_Z22producerConsumer_C_APIv+0x230>
        data[i].id = i;
    800033e8:	00149793          	slli	a5,s1,0x1
    800033ec:	009787b3          	add	a5,a5,s1
    800033f0:	00379793          	slli	a5,a5,0x3
    800033f4:	00f987b3          	add	a5,s3,a5
    800033f8:	0097a023          	sw	s1,0(a5)
        data[i].buffer = buffer;
    800033fc:	0147b423          	sd	s4,8(a5)
        data[i].wait = waitForAll;
    80003400:	00008717          	auipc	a4,0x8
    80003404:	5c873703          	ld	a4,1480(a4) # 8000b9c8 <_ZL10waitForAll>
    80003408:	00e7b823          	sd	a4,16(a5)
        thread_create(threads + i,
    8000340c:	00048793          	mv	a5,s1
    80003410:	00349513          	slli	a0,s1,0x3
    80003414:	00aa8533          	add	a0,s5,a0
    80003418:	fa9054e3          	blez	s1,800033c0 <_Z22producerConsumer_C_APIv+0x1c8>
    8000341c:	00000597          	auipc	a1,0x0
    80003420:	c6858593          	addi	a1,a1,-920 # 80003084 <_ZL8producerPv>
    80003424:	fa5ff06f          	j	800033c8 <_Z22producerConsumer_C_APIv+0x1d0>
    thread_dispatch();
    80003428:	ffffe097          	auipc	ra,0xffffe
    8000342c:	e64080e7          	jalr	-412(ra) # 8000128c <thread_dispatch>
    for (int i = 0; i <= threadNum; i++) {
    80003430:	00000493          	li	s1,0
    80003434:	00994e63          	blt	s2,s1,80003450 <_Z22producerConsumer_C_APIv+0x258>
        sem_wait(waitForAll);
    80003438:	00008517          	auipc	a0,0x8
    8000343c:	59053503          	ld	a0,1424(a0) # 8000b9c8 <_ZL10waitForAll>
    80003440:	ffffe097          	auipc	ra,0xffffe
    80003444:	f50080e7          	jalr	-176(ra) # 80001390 <sem_wait>
    for (int i = 0; i <= threadNum; i++) {
    80003448:	0014849b          	addiw	s1,s1,1
    8000344c:	fe9ff06f          	j	80003434 <_Z22producerConsumer_C_APIv+0x23c>
    sem_close(waitForAll);
    80003450:	00008517          	auipc	a0,0x8
    80003454:	57853503          	ld	a0,1400(a0) # 8000b9c8 <_ZL10waitForAll>
    80003458:	ffffe097          	auipc	ra,0xffffe
    8000345c:	eec080e7          	jalr	-276(ra) # 80001344 <sem_close>
    delete buffer;
    80003460:	000a0e63          	beqz	s4,8000347c <_Z22producerConsumer_C_APIv+0x284>
    80003464:	000a0513          	mv	a0,s4
    80003468:	00003097          	auipc	ra,0x3
    8000346c:	180080e7          	jalr	384(ra) # 800065e8 <_ZN6BufferD1Ev>
    80003470:	000a0513          	mv	a0,s4
    80003474:	fffff097          	auipc	ra,0xfffff
    80003478:	9e0080e7          	jalr	-1568(ra) # 80001e54 <_ZdlPv>
    8000347c:	000b0113          	mv	sp,s6

}
    80003480:	f9040113          	addi	sp,s0,-112
    80003484:	06813083          	ld	ra,104(sp)
    80003488:	06013403          	ld	s0,96(sp)
    8000348c:	05813483          	ld	s1,88(sp)
    80003490:	05013903          	ld	s2,80(sp)
    80003494:	04813983          	ld	s3,72(sp)
    80003498:	04013a03          	ld	s4,64(sp)
    8000349c:	03813a83          	ld	s5,56(sp)
    800034a0:	03013b03          	ld	s6,48(sp)
    800034a4:	07010113          	addi	sp,sp,112
    800034a8:	00008067          	ret
    800034ac:	00050493          	mv	s1,a0
    Buffer *buffer = new Buffer(n);
    800034b0:	000a0513          	mv	a0,s4
    800034b4:	fffff097          	auipc	ra,0xfffff
    800034b8:	9a0080e7          	jalr	-1632(ra) # 80001e54 <_ZdlPv>
    800034bc:	00048513          	mv	a0,s1
    800034c0:	00009097          	auipc	ra,0x9
    800034c4:	618080e7          	jalr	1560(ra) # 8000cad8 <_Unwind_Resume>

00000000800034c8 <_ZL9fibonaccim>:
static volatile bool finishedA = false;
static volatile bool finishedB = false;
static volatile bool finishedC = false;
static volatile bool finishedD = false;

static uint64 fibonacci(uint64 n) {
    800034c8:	fe010113          	addi	sp,sp,-32
    800034cc:	00113c23          	sd	ra,24(sp)
    800034d0:	00813823          	sd	s0,16(sp)
    800034d4:	00913423          	sd	s1,8(sp)
    800034d8:	01213023          	sd	s2,0(sp)
    800034dc:	02010413          	addi	s0,sp,32
    800034e0:	00050493          	mv	s1,a0
    if (n == 0 || n == 1) { return n; }
    800034e4:	00100793          	li	a5,1
    800034e8:	02a7f863          	bgeu	a5,a0,80003518 <_ZL9fibonaccim+0x50>
    if (n % 10 == 0) { thread_dispatch(); }
    800034ec:	00a00793          	li	a5,10
    800034f0:	02f577b3          	remu	a5,a0,a5
    800034f4:	02078e63          	beqz	a5,80003530 <_ZL9fibonaccim+0x68>
    return fibonacci(n - 1) + fibonacci(n - 2);
    800034f8:	fff48513          	addi	a0,s1,-1
    800034fc:	00000097          	auipc	ra,0x0
    80003500:	fcc080e7          	jalr	-52(ra) # 800034c8 <_ZL9fibonaccim>
    80003504:	00050913          	mv	s2,a0
    80003508:	ffe48513          	addi	a0,s1,-2
    8000350c:	00000097          	auipc	ra,0x0
    80003510:	fbc080e7          	jalr	-68(ra) # 800034c8 <_ZL9fibonaccim>
    80003514:	00a90533          	add	a0,s2,a0
}
    80003518:	01813083          	ld	ra,24(sp)
    8000351c:	01013403          	ld	s0,16(sp)
    80003520:	00813483          	ld	s1,8(sp)
    80003524:	00013903          	ld	s2,0(sp)
    80003528:	02010113          	addi	sp,sp,32
    8000352c:	00008067          	ret
    if (n % 10 == 0) { thread_dispatch(); }
    80003530:	ffffe097          	auipc	ra,0xffffe
    80003534:	d5c080e7          	jalr	-676(ra) # 8000128c <thread_dispatch>
    80003538:	fc1ff06f          	j	800034f8 <_ZL9fibonaccim+0x30>

000000008000353c <_ZN7WorkerA11workerBodyAEPv>:
    void run() override {
        workerBodyD(nullptr);
    }
};

void WorkerA::workerBodyA(void *arg) {
    8000353c:	fe010113          	addi	sp,sp,-32
    80003540:	00113c23          	sd	ra,24(sp)
    80003544:	00813823          	sd	s0,16(sp)
    80003548:	00913423          	sd	s1,8(sp)
    8000354c:	01213023          	sd	s2,0(sp)
    80003550:	02010413          	addi	s0,sp,32
    for (uint64 i = 0; i < 10; i++) {
    80003554:	00000913          	li	s2,0
    80003558:	0380006f          	j	80003590 <_ZN7WorkerA11workerBodyAEPv+0x54>
        printString("A: i="); printInt(i); printString("\n");
        for (uint64 j = 0; j < 10000; j++) {
            for (uint64 k = 0; k < 30000; k++) { /* busy wait */ }
            thread_dispatch();
    8000355c:	ffffe097          	auipc	ra,0xffffe
    80003560:	d30080e7          	jalr	-720(ra) # 8000128c <thread_dispatch>
        for (uint64 j = 0; j < 10000; j++) {
    80003564:	00148493          	addi	s1,s1,1
    80003568:	000027b7          	lui	a5,0x2
    8000356c:	70f78793          	addi	a5,a5,1807 # 270f <_entry-0x7fffd8f1>
    80003570:	0097ee63          	bltu	a5,s1,8000358c <_ZN7WorkerA11workerBodyAEPv+0x50>
            for (uint64 k = 0; k < 30000; k++) { /* busy wait */ }
    80003574:	00000713          	li	a4,0
    80003578:	000077b7          	lui	a5,0x7
    8000357c:	52f78793          	addi	a5,a5,1327 # 752f <_entry-0x7fff8ad1>
    80003580:	fce7eee3          	bltu	a5,a4,8000355c <_ZN7WorkerA11workerBodyAEPv+0x20>
    80003584:	00170713          	addi	a4,a4,1
    80003588:	ff1ff06f          	j	80003578 <_ZN7WorkerA11workerBodyAEPv+0x3c>
    for (uint64 i = 0; i < 10; i++) {
    8000358c:	00190913          	addi	s2,s2,1
    80003590:	00900793          	li	a5,9
    80003594:	0527e063          	bltu	a5,s2,800035d4 <_ZN7WorkerA11workerBodyAEPv+0x98>
        printString("A: i="); printInt(i); printString("\n");
    80003598:	00006517          	auipc	a0,0x6
    8000359c:	a8850513          	addi	a0,a0,-1400 # 80009020 <CONSOLE_STATUS+0x10>
    800035a0:	00002097          	auipc	ra,0x2
    800035a4:	eac080e7          	jalr	-340(ra) # 8000544c <_Z11printStringPKc>
    800035a8:	00000613          	li	a2,0
    800035ac:	00a00593          	li	a1,10
    800035b0:	0009051b          	sext.w	a0,s2
    800035b4:	00002097          	auipc	ra,0x2
    800035b8:	048080e7          	jalr	72(ra) # 800055fc <_Z8printIntiii>
    800035bc:	00006517          	auipc	a0,0x6
    800035c0:	00450513          	addi	a0,a0,4 # 800095c0 <CONSOLE_STATUS+0x5b0>
    800035c4:	00002097          	auipc	ra,0x2
    800035c8:	e88080e7          	jalr	-376(ra) # 8000544c <_Z11printStringPKc>
        for (uint64 j = 0; j < 10000; j++) {
    800035cc:	00000493          	li	s1,0
    800035d0:	f99ff06f          	j	80003568 <_ZN7WorkerA11workerBodyAEPv+0x2c>
        }
    }
    printString("A finished!\n");
    800035d4:	00006517          	auipc	a0,0x6
    800035d8:	de450513          	addi	a0,a0,-540 # 800093b8 <CONSOLE_STATUS+0x3a8>
    800035dc:	00002097          	auipc	ra,0x2
    800035e0:	e70080e7          	jalr	-400(ra) # 8000544c <_Z11printStringPKc>
    finishedA = true;
    800035e4:	00100793          	li	a5,1
    800035e8:	00008717          	auipc	a4,0x8
    800035ec:	3ef70423          	sb	a5,1000(a4) # 8000b9d0 <_ZL9finishedA>
}
    800035f0:	01813083          	ld	ra,24(sp)
    800035f4:	01013403          	ld	s0,16(sp)
    800035f8:	00813483          	ld	s1,8(sp)
    800035fc:	00013903          	ld	s2,0(sp)
    80003600:	02010113          	addi	sp,sp,32
    80003604:	00008067          	ret

0000000080003608 <_ZN7WorkerB11workerBodyBEPv>:

void WorkerB::workerBodyB(void *arg) {
    80003608:	fe010113          	addi	sp,sp,-32
    8000360c:	00113c23          	sd	ra,24(sp)
    80003610:	00813823          	sd	s0,16(sp)
    80003614:	00913423          	sd	s1,8(sp)
    80003618:	01213023          	sd	s2,0(sp)
    8000361c:	02010413          	addi	s0,sp,32
    for (uint64 i = 0; i < 16; i++) {
    80003620:	00000913          	li	s2,0
    80003624:	0380006f          	j	8000365c <_ZN7WorkerB11workerBodyBEPv+0x54>
        printString("B: i="); printInt(i); printString("\n");
        for (uint64 j = 0; j < 10000; j++) {
            for (uint64 k = 0; k < 30000; k++) { /* busy wait */ }
            thread_dispatch();
    80003628:	ffffe097          	auipc	ra,0xffffe
    8000362c:	c64080e7          	jalr	-924(ra) # 8000128c <thread_dispatch>
        for (uint64 j = 0; j < 10000; j++) {
    80003630:	00148493          	addi	s1,s1,1
    80003634:	000027b7          	lui	a5,0x2
    80003638:	70f78793          	addi	a5,a5,1807 # 270f <_entry-0x7fffd8f1>
    8000363c:	0097ee63          	bltu	a5,s1,80003658 <_ZN7WorkerB11workerBodyBEPv+0x50>
            for (uint64 k = 0; k < 30000; k++) { /* busy wait */ }
    80003640:	00000713          	li	a4,0
    80003644:	000077b7          	lui	a5,0x7
    80003648:	52f78793          	addi	a5,a5,1327 # 752f <_entry-0x7fff8ad1>
    8000364c:	fce7eee3          	bltu	a5,a4,80003628 <_ZN7WorkerB11workerBodyBEPv+0x20>
    80003650:	00170713          	addi	a4,a4,1
    80003654:	ff1ff06f          	j	80003644 <_ZN7WorkerB11workerBodyBEPv+0x3c>
    for (uint64 i = 0; i < 16; i++) {
    80003658:	00190913          	addi	s2,s2,1
    8000365c:	00f00793          	li	a5,15
    80003660:	0527e063          	bltu	a5,s2,800036a0 <_ZN7WorkerB11workerBodyBEPv+0x98>
        printString("B: i="); printInt(i); printString("\n");
    80003664:	00006517          	auipc	a0,0x6
    80003668:	9c450513          	addi	a0,a0,-1596 # 80009028 <CONSOLE_STATUS+0x18>
    8000366c:	00002097          	auipc	ra,0x2
    80003670:	de0080e7          	jalr	-544(ra) # 8000544c <_Z11printStringPKc>
    80003674:	00000613          	li	a2,0
    80003678:	00a00593          	li	a1,10
    8000367c:	0009051b          	sext.w	a0,s2
    80003680:	00002097          	auipc	ra,0x2
    80003684:	f7c080e7          	jalr	-132(ra) # 800055fc <_Z8printIntiii>
    80003688:	00006517          	auipc	a0,0x6
    8000368c:	f3850513          	addi	a0,a0,-200 # 800095c0 <CONSOLE_STATUS+0x5b0>
    80003690:	00002097          	auipc	ra,0x2
    80003694:	dbc080e7          	jalr	-580(ra) # 8000544c <_Z11printStringPKc>
        for (uint64 j = 0; j < 10000; j++) {
    80003698:	00000493          	li	s1,0
    8000369c:	f99ff06f          	j	80003634 <_ZN7WorkerB11workerBodyBEPv+0x2c>
        }
    }
    printString("B finished!\n");
    800036a0:	00006517          	auipc	a0,0x6
    800036a4:	d2850513          	addi	a0,a0,-728 # 800093c8 <CONSOLE_STATUS+0x3b8>
    800036a8:	00002097          	auipc	ra,0x2
    800036ac:	da4080e7          	jalr	-604(ra) # 8000544c <_Z11printStringPKc>
    finishedB = true;
    800036b0:	00100793          	li	a5,1
    800036b4:	00008717          	auipc	a4,0x8
    800036b8:	30f70ea3          	sb	a5,797(a4) # 8000b9d1 <_ZL9finishedB>
    thread_dispatch();
    800036bc:	ffffe097          	auipc	ra,0xffffe
    800036c0:	bd0080e7          	jalr	-1072(ra) # 8000128c <thread_dispatch>
}
    800036c4:	01813083          	ld	ra,24(sp)
    800036c8:	01013403          	ld	s0,16(sp)
    800036cc:	00813483          	ld	s1,8(sp)
    800036d0:	00013903          	ld	s2,0(sp)
    800036d4:	02010113          	addi	sp,sp,32
    800036d8:	00008067          	ret

00000000800036dc <_ZN7WorkerC11workerBodyCEPv>:

void WorkerC::workerBodyC(void *arg) {
    800036dc:	fe010113          	addi	sp,sp,-32
    800036e0:	00113c23          	sd	ra,24(sp)
    800036e4:	00813823          	sd	s0,16(sp)
    800036e8:	00913423          	sd	s1,8(sp)
    800036ec:	01213023          	sd	s2,0(sp)
    800036f0:	02010413          	addi	s0,sp,32
    uint8 i = 0;
    800036f4:	00000493          	li	s1,0
    800036f8:	0400006f          	j	80003738 <_ZN7WorkerC11workerBodyCEPv+0x5c>
    for (; i < 3; i++) {
        printString("C: i="); printInt(i); printString("\n");
    800036fc:	00006517          	auipc	a0,0x6
    80003700:	93450513          	addi	a0,a0,-1740 # 80009030 <CONSOLE_STATUS+0x20>
    80003704:	00002097          	auipc	ra,0x2
    80003708:	d48080e7          	jalr	-696(ra) # 8000544c <_Z11printStringPKc>
    8000370c:	00000613          	li	a2,0
    80003710:	00a00593          	li	a1,10
    80003714:	00048513          	mv	a0,s1
    80003718:	00002097          	auipc	ra,0x2
    8000371c:	ee4080e7          	jalr	-284(ra) # 800055fc <_Z8printIntiii>
    80003720:	00006517          	auipc	a0,0x6
    80003724:	ea050513          	addi	a0,a0,-352 # 800095c0 <CONSOLE_STATUS+0x5b0>
    80003728:	00002097          	auipc	ra,0x2
    8000372c:	d24080e7          	jalr	-732(ra) # 8000544c <_Z11printStringPKc>
    for (; i < 3; i++) {
    80003730:	0014849b          	addiw	s1,s1,1
    80003734:	0ff4f493          	andi	s1,s1,255
    80003738:	00200793          	li	a5,2
    8000373c:	fc97f0e3          	bgeu	a5,s1,800036fc <_ZN7WorkerC11workerBodyCEPv+0x20>
    }

    printString("C: dispatch\n");
    80003740:	00006517          	auipc	a0,0x6
    80003744:	c9850513          	addi	a0,a0,-872 # 800093d8 <CONSOLE_STATUS+0x3c8>
    80003748:	00002097          	auipc	ra,0x2
    8000374c:	d04080e7          	jalr	-764(ra) # 8000544c <_Z11printStringPKc>
    __asm__ ("li t1, 7");
    80003750:	00700313          	li	t1,7
    thread_dispatch();
    80003754:	ffffe097          	auipc	ra,0xffffe
    80003758:	b38080e7          	jalr	-1224(ra) # 8000128c <thread_dispatch>

    uint64 t1 = 0;
    __asm__ ("mv %[t1], t1" : [t1] "=r"(t1));
    8000375c:	00030913          	mv	s2,t1

    printString("C: t1="); printInt(t1); printString("\n");
    80003760:	00006517          	auipc	a0,0x6
    80003764:	8e850513          	addi	a0,a0,-1816 # 80009048 <CONSOLE_STATUS+0x38>
    80003768:	00002097          	auipc	ra,0x2
    8000376c:	ce4080e7          	jalr	-796(ra) # 8000544c <_Z11printStringPKc>
    80003770:	00000613          	li	a2,0
    80003774:	00a00593          	li	a1,10
    80003778:	0009051b          	sext.w	a0,s2
    8000377c:	00002097          	auipc	ra,0x2
    80003780:	e80080e7          	jalr	-384(ra) # 800055fc <_Z8printIntiii>
    80003784:	00006517          	auipc	a0,0x6
    80003788:	e3c50513          	addi	a0,a0,-452 # 800095c0 <CONSOLE_STATUS+0x5b0>
    8000378c:	00002097          	auipc	ra,0x2
    80003790:	cc0080e7          	jalr	-832(ra) # 8000544c <_Z11printStringPKc>

    uint64 result = fibonacci(12);
    80003794:	00c00513          	li	a0,12
    80003798:	00000097          	auipc	ra,0x0
    8000379c:	d30080e7          	jalr	-720(ra) # 800034c8 <_ZL9fibonaccim>
    800037a0:	00050913          	mv	s2,a0
    printString("C: fibonaci="); printInt(result); printString("\n");
    800037a4:	00006517          	auipc	a0,0x6
    800037a8:	8ac50513          	addi	a0,a0,-1876 # 80009050 <CONSOLE_STATUS+0x40>
    800037ac:	00002097          	auipc	ra,0x2
    800037b0:	ca0080e7          	jalr	-864(ra) # 8000544c <_Z11printStringPKc>
    800037b4:	00000613          	li	a2,0
    800037b8:	00a00593          	li	a1,10
    800037bc:	0009051b          	sext.w	a0,s2
    800037c0:	00002097          	auipc	ra,0x2
    800037c4:	e3c080e7          	jalr	-452(ra) # 800055fc <_Z8printIntiii>
    800037c8:	00006517          	auipc	a0,0x6
    800037cc:	df850513          	addi	a0,a0,-520 # 800095c0 <CONSOLE_STATUS+0x5b0>
    800037d0:	00002097          	auipc	ra,0x2
    800037d4:	c7c080e7          	jalr	-900(ra) # 8000544c <_Z11printStringPKc>
    800037d8:	0400006f          	j	80003818 <_ZN7WorkerC11workerBodyCEPv+0x13c>

    for (; i < 6; i++) {
        printString("C: i="); printInt(i); printString("\n");
    800037dc:	00006517          	auipc	a0,0x6
    800037e0:	85450513          	addi	a0,a0,-1964 # 80009030 <CONSOLE_STATUS+0x20>
    800037e4:	00002097          	auipc	ra,0x2
    800037e8:	c68080e7          	jalr	-920(ra) # 8000544c <_Z11printStringPKc>
    800037ec:	00000613          	li	a2,0
    800037f0:	00a00593          	li	a1,10
    800037f4:	00048513          	mv	a0,s1
    800037f8:	00002097          	auipc	ra,0x2
    800037fc:	e04080e7          	jalr	-508(ra) # 800055fc <_Z8printIntiii>
    80003800:	00006517          	auipc	a0,0x6
    80003804:	dc050513          	addi	a0,a0,-576 # 800095c0 <CONSOLE_STATUS+0x5b0>
    80003808:	00002097          	auipc	ra,0x2
    8000380c:	c44080e7          	jalr	-956(ra) # 8000544c <_Z11printStringPKc>
    for (; i < 6; i++) {
    80003810:	0014849b          	addiw	s1,s1,1
    80003814:	0ff4f493          	andi	s1,s1,255
    80003818:	00500793          	li	a5,5
    8000381c:	fc97f0e3          	bgeu	a5,s1,800037dc <_ZN7WorkerC11workerBodyCEPv+0x100>
    }

    printString("A finished!\n");
    80003820:	00006517          	auipc	a0,0x6
    80003824:	b9850513          	addi	a0,a0,-1128 # 800093b8 <CONSOLE_STATUS+0x3a8>
    80003828:	00002097          	auipc	ra,0x2
    8000382c:	c24080e7          	jalr	-988(ra) # 8000544c <_Z11printStringPKc>
    finishedC = true;
    80003830:	00100793          	li	a5,1
    80003834:	00008717          	auipc	a4,0x8
    80003838:	18f70f23          	sb	a5,414(a4) # 8000b9d2 <_ZL9finishedC>
    thread_dispatch();
    8000383c:	ffffe097          	auipc	ra,0xffffe
    80003840:	a50080e7          	jalr	-1456(ra) # 8000128c <thread_dispatch>
}
    80003844:	01813083          	ld	ra,24(sp)
    80003848:	01013403          	ld	s0,16(sp)
    8000384c:	00813483          	ld	s1,8(sp)
    80003850:	00013903          	ld	s2,0(sp)
    80003854:	02010113          	addi	sp,sp,32
    80003858:	00008067          	ret

000000008000385c <_ZN7WorkerD11workerBodyDEPv>:

void WorkerD::workerBodyD(void* arg) {
    8000385c:	fe010113          	addi	sp,sp,-32
    80003860:	00113c23          	sd	ra,24(sp)
    80003864:	00813823          	sd	s0,16(sp)
    80003868:	00913423          	sd	s1,8(sp)
    8000386c:	01213023          	sd	s2,0(sp)
    80003870:	02010413          	addi	s0,sp,32
    uint8 i = 10;
    80003874:	00a00493          	li	s1,10
    80003878:	0400006f          	j	800038b8 <_ZN7WorkerD11workerBodyDEPv+0x5c>
    for (; i < 13; i++) {
        printString("D: i="); printInt(i); printString("\n");
    8000387c:	00005517          	auipc	a0,0x5
    80003880:	7e450513          	addi	a0,a0,2020 # 80009060 <CONSOLE_STATUS+0x50>
    80003884:	00002097          	auipc	ra,0x2
    80003888:	bc8080e7          	jalr	-1080(ra) # 8000544c <_Z11printStringPKc>
    8000388c:	00000613          	li	a2,0
    80003890:	00a00593          	li	a1,10
    80003894:	00048513          	mv	a0,s1
    80003898:	00002097          	auipc	ra,0x2
    8000389c:	d64080e7          	jalr	-668(ra) # 800055fc <_Z8printIntiii>
    800038a0:	00006517          	auipc	a0,0x6
    800038a4:	d2050513          	addi	a0,a0,-736 # 800095c0 <CONSOLE_STATUS+0x5b0>
    800038a8:	00002097          	auipc	ra,0x2
    800038ac:	ba4080e7          	jalr	-1116(ra) # 8000544c <_Z11printStringPKc>
    for (; i < 13; i++) {
    800038b0:	0014849b          	addiw	s1,s1,1
    800038b4:	0ff4f493          	andi	s1,s1,255
    800038b8:	00c00793          	li	a5,12
    800038bc:	fc97f0e3          	bgeu	a5,s1,8000387c <_ZN7WorkerD11workerBodyDEPv+0x20>
    }

    printString("D: dispatch\n");
    800038c0:	00006517          	auipc	a0,0x6
    800038c4:	b2850513          	addi	a0,a0,-1240 # 800093e8 <CONSOLE_STATUS+0x3d8>
    800038c8:	00002097          	auipc	ra,0x2
    800038cc:	b84080e7          	jalr	-1148(ra) # 8000544c <_Z11printStringPKc>
    __asm__ ("li t1, 5");
    800038d0:	00500313          	li	t1,5
    thread_dispatch();
    800038d4:	ffffe097          	auipc	ra,0xffffe
    800038d8:	9b8080e7          	jalr	-1608(ra) # 8000128c <thread_dispatch>

    uint64 result = fibonacci(16);
    800038dc:	01000513          	li	a0,16
    800038e0:	00000097          	auipc	ra,0x0
    800038e4:	be8080e7          	jalr	-1048(ra) # 800034c8 <_ZL9fibonaccim>
    800038e8:	00050913          	mv	s2,a0
    printString("D: fibonaci="); printInt(result); printString("\n");
    800038ec:	00005517          	auipc	a0,0x5
    800038f0:	78c50513          	addi	a0,a0,1932 # 80009078 <CONSOLE_STATUS+0x68>
    800038f4:	00002097          	auipc	ra,0x2
    800038f8:	b58080e7          	jalr	-1192(ra) # 8000544c <_Z11printStringPKc>
    800038fc:	00000613          	li	a2,0
    80003900:	00a00593          	li	a1,10
    80003904:	0009051b          	sext.w	a0,s2
    80003908:	00002097          	auipc	ra,0x2
    8000390c:	cf4080e7          	jalr	-780(ra) # 800055fc <_Z8printIntiii>
    80003910:	00006517          	auipc	a0,0x6
    80003914:	cb050513          	addi	a0,a0,-848 # 800095c0 <CONSOLE_STATUS+0x5b0>
    80003918:	00002097          	auipc	ra,0x2
    8000391c:	b34080e7          	jalr	-1228(ra) # 8000544c <_Z11printStringPKc>
    80003920:	0400006f          	j	80003960 <_ZN7WorkerD11workerBodyDEPv+0x104>

    for (; i < 16; i++) {
        printString("D: i="); printInt(i); printString("\n");
    80003924:	00005517          	auipc	a0,0x5
    80003928:	73c50513          	addi	a0,a0,1852 # 80009060 <CONSOLE_STATUS+0x50>
    8000392c:	00002097          	auipc	ra,0x2
    80003930:	b20080e7          	jalr	-1248(ra) # 8000544c <_Z11printStringPKc>
    80003934:	00000613          	li	a2,0
    80003938:	00a00593          	li	a1,10
    8000393c:	00048513          	mv	a0,s1
    80003940:	00002097          	auipc	ra,0x2
    80003944:	cbc080e7          	jalr	-836(ra) # 800055fc <_Z8printIntiii>
    80003948:	00006517          	auipc	a0,0x6
    8000394c:	c7850513          	addi	a0,a0,-904 # 800095c0 <CONSOLE_STATUS+0x5b0>
    80003950:	00002097          	auipc	ra,0x2
    80003954:	afc080e7          	jalr	-1284(ra) # 8000544c <_Z11printStringPKc>
    for (; i < 16; i++) {
    80003958:	0014849b          	addiw	s1,s1,1
    8000395c:	0ff4f493          	andi	s1,s1,255
    80003960:	00f00793          	li	a5,15
    80003964:	fc97f0e3          	bgeu	a5,s1,80003924 <_ZN7WorkerD11workerBodyDEPv+0xc8>
    }

    printString("D finished!\n");
    80003968:	00006517          	auipc	a0,0x6
    8000396c:	a9050513          	addi	a0,a0,-1392 # 800093f8 <CONSOLE_STATUS+0x3e8>
    80003970:	00002097          	auipc	ra,0x2
    80003974:	adc080e7          	jalr	-1316(ra) # 8000544c <_Z11printStringPKc>
    finishedD = true;
    80003978:	00100793          	li	a5,1
    8000397c:	00008717          	auipc	a4,0x8
    80003980:	04f70ba3          	sb	a5,87(a4) # 8000b9d3 <_ZL9finishedD>
    thread_dispatch();
    80003984:	ffffe097          	auipc	ra,0xffffe
    80003988:	908080e7          	jalr	-1784(ra) # 8000128c <thread_dispatch>
}
    8000398c:	01813083          	ld	ra,24(sp)
    80003990:	01013403          	ld	s0,16(sp)
    80003994:	00813483          	ld	s1,8(sp)
    80003998:	00013903          	ld	s2,0(sp)
    8000399c:	02010113          	addi	sp,sp,32
    800039a0:	00008067          	ret

00000000800039a4 <_Z20Threads_CPP_API_testv>:


void Threads_CPP_API_test() {
    800039a4:	fc010113          	addi	sp,sp,-64
    800039a8:	02113c23          	sd	ra,56(sp)
    800039ac:	02813823          	sd	s0,48(sp)
    800039b0:	02913423          	sd	s1,40(sp)
    800039b4:	03213023          	sd	s2,32(sp)
    800039b8:	04010413          	addi	s0,sp,64
    Thread* threads[4];

    threads[0] = new WorkerA();
    800039bc:	02000513          	li	a0,32
    800039c0:	ffffe097          	auipc	ra,0xffffe
    800039c4:	444080e7          	jalr	1092(ra) # 80001e04 <_Znwm>
    800039c8:	00050493          	mv	s1,a0
    WorkerA():Thread() {}
    800039cc:	ffffe097          	auipc	ra,0xffffe
    800039d0:	540080e7          	jalr	1344(ra) # 80001f0c <_ZN6ThreadC1Ev>
    800039d4:	00008797          	auipc	a5,0x8
    800039d8:	d6c78793          	addi	a5,a5,-660 # 8000b740 <_ZTV7WorkerA+0x10>
    800039dc:	00f4b023          	sd	a5,0(s1)
    threads[0] = new WorkerA();
    800039e0:	fc943023          	sd	s1,-64(s0)
    printString("ThreadA created\n");
    800039e4:	00006517          	auipc	a0,0x6
    800039e8:	a2450513          	addi	a0,a0,-1500 # 80009408 <CONSOLE_STATUS+0x3f8>
    800039ec:	00002097          	auipc	ra,0x2
    800039f0:	a60080e7          	jalr	-1440(ra) # 8000544c <_Z11printStringPKc>

    threads[1] = new WorkerB();
    800039f4:	02000513          	li	a0,32
    800039f8:	ffffe097          	auipc	ra,0xffffe
    800039fc:	40c080e7          	jalr	1036(ra) # 80001e04 <_Znwm>
    80003a00:	00050493          	mv	s1,a0
    WorkerB():Thread() {}
    80003a04:	ffffe097          	auipc	ra,0xffffe
    80003a08:	508080e7          	jalr	1288(ra) # 80001f0c <_ZN6ThreadC1Ev>
    80003a0c:	00008797          	auipc	a5,0x8
    80003a10:	d5c78793          	addi	a5,a5,-676 # 8000b768 <_ZTV7WorkerB+0x10>
    80003a14:	00f4b023          	sd	a5,0(s1)
    threads[1] = new WorkerB();
    80003a18:	fc943423          	sd	s1,-56(s0)
    printString("ThreadB created\n");
    80003a1c:	00006517          	auipc	a0,0x6
    80003a20:	a0450513          	addi	a0,a0,-1532 # 80009420 <CONSOLE_STATUS+0x410>
    80003a24:	00002097          	auipc	ra,0x2
    80003a28:	a28080e7          	jalr	-1496(ra) # 8000544c <_Z11printStringPKc>

    threads[2] = new WorkerC();
    80003a2c:	02000513          	li	a0,32
    80003a30:	ffffe097          	auipc	ra,0xffffe
    80003a34:	3d4080e7          	jalr	980(ra) # 80001e04 <_Znwm>
    80003a38:	00050493          	mv	s1,a0
    WorkerC():Thread() {}
    80003a3c:	ffffe097          	auipc	ra,0xffffe
    80003a40:	4d0080e7          	jalr	1232(ra) # 80001f0c <_ZN6ThreadC1Ev>
    80003a44:	00008797          	auipc	a5,0x8
    80003a48:	d4c78793          	addi	a5,a5,-692 # 8000b790 <_ZTV7WorkerC+0x10>
    80003a4c:	00f4b023          	sd	a5,0(s1)
    threads[2] = new WorkerC();
    80003a50:	fc943823          	sd	s1,-48(s0)
    printString("ThreadC created\n");
    80003a54:	00006517          	auipc	a0,0x6
    80003a58:	9e450513          	addi	a0,a0,-1564 # 80009438 <CONSOLE_STATUS+0x428>
    80003a5c:	00002097          	auipc	ra,0x2
    80003a60:	9f0080e7          	jalr	-1552(ra) # 8000544c <_Z11printStringPKc>

    threads[3] = new WorkerD();
    80003a64:	02000513          	li	a0,32
    80003a68:	ffffe097          	auipc	ra,0xffffe
    80003a6c:	39c080e7          	jalr	924(ra) # 80001e04 <_Znwm>
    80003a70:	00050493          	mv	s1,a0
    WorkerD():Thread() {}
    80003a74:	ffffe097          	auipc	ra,0xffffe
    80003a78:	498080e7          	jalr	1176(ra) # 80001f0c <_ZN6ThreadC1Ev>
    80003a7c:	00008797          	auipc	a5,0x8
    80003a80:	d3c78793          	addi	a5,a5,-708 # 8000b7b8 <_ZTV7WorkerD+0x10>
    80003a84:	00f4b023          	sd	a5,0(s1)
    threads[3] = new WorkerD();
    80003a88:	fc943c23          	sd	s1,-40(s0)
    printString("ThreadD created\n");
    80003a8c:	00006517          	auipc	a0,0x6
    80003a90:	9c450513          	addi	a0,a0,-1596 # 80009450 <CONSOLE_STATUS+0x440>
    80003a94:	00002097          	auipc	ra,0x2
    80003a98:	9b8080e7          	jalr	-1608(ra) # 8000544c <_Z11printStringPKc>

    for(int i=0; i<4; i++) {
    80003a9c:	00000493          	li	s1,0
    80003aa0:	00300793          	li	a5,3
    80003aa4:	0297c663          	blt	a5,s1,80003ad0 <_Z20Threads_CPP_API_testv+0x12c>
        threads[i]->start();
    80003aa8:	00349793          	slli	a5,s1,0x3
    80003aac:	fe040713          	addi	a4,s0,-32
    80003ab0:	00f707b3          	add	a5,a4,a5
    80003ab4:	fe07b503          	ld	a0,-32(a5)
    80003ab8:	ffffe097          	auipc	ra,0xffffe
    80003abc:	4e4080e7          	jalr	1252(ra) # 80001f9c <_ZN6Thread5startEv>
    for(int i=0; i<4; i++) {
    80003ac0:	0014849b          	addiw	s1,s1,1
    80003ac4:	fddff06f          	j	80003aa0 <_Z20Threads_CPP_API_testv+0xfc>
    }

    while (!(finishedA && finishedB && finishedC && finishedD)) {
        Thread::dispatch();
    80003ac8:	ffffe097          	auipc	ra,0xffffe
    80003acc:	528080e7          	jalr	1320(ra) # 80001ff0 <_ZN6Thread8dispatchEv>
    while (!(finishedA && finishedB && finishedC && finishedD)) {
    80003ad0:	00008797          	auipc	a5,0x8
    80003ad4:	f007c783          	lbu	a5,-256(a5) # 8000b9d0 <_ZL9finishedA>
    80003ad8:	fe0788e3          	beqz	a5,80003ac8 <_Z20Threads_CPP_API_testv+0x124>
    80003adc:	00008797          	auipc	a5,0x8
    80003ae0:	ef57c783          	lbu	a5,-267(a5) # 8000b9d1 <_ZL9finishedB>
    80003ae4:	fe0782e3          	beqz	a5,80003ac8 <_Z20Threads_CPP_API_testv+0x124>
    80003ae8:	00008797          	auipc	a5,0x8
    80003aec:	eea7c783          	lbu	a5,-278(a5) # 8000b9d2 <_ZL9finishedC>
    80003af0:	fc078ce3          	beqz	a5,80003ac8 <_Z20Threads_CPP_API_testv+0x124>
    80003af4:	00008797          	auipc	a5,0x8
    80003af8:	edf7c783          	lbu	a5,-289(a5) # 8000b9d3 <_ZL9finishedD>
    80003afc:	fc0786e3          	beqz	a5,80003ac8 <_Z20Threads_CPP_API_testv+0x124>
    80003b00:	fc040493          	addi	s1,s0,-64
    80003b04:	0080006f          	j	80003b0c <_Z20Threads_CPP_API_testv+0x168>
    }

    for (auto thread: threads) { delete thread; }
    80003b08:	00848493          	addi	s1,s1,8
    80003b0c:	fe040793          	addi	a5,s0,-32
    80003b10:	08f48663          	beq	s1,a5,80003b9c <_Z20Threads_CPP_API_testv+0x1f8>
    80003b14:	0004b503          	ld	a0,0(s1)
    80003b18:	fe0508e3          	beqz	a0,80003b08 <_Z20Threads_CPP_API_testv+0x164>
    80003b1c:	00053783          	ld	a5,0(a0)
    80003b20:	0087b783          	ld	a5,8(a5)
    80003b24:	000780e7          	jalr	a5
    80003b28:	fe1ff06f          	j	80003b08 <_Z20Threads_CPP_API_testv+0x164>
    80003b2c:	00050913          	mv	s2,a0
    threads[0] = new WorkerA();
    80003b30:	00048513          	mv	a0,s1
    80003b34:	ffffe097          	auipc	ra,0xffffe
    80003b38:	320080e7          	jalr	800(ra) # 80001e54 <_ZdlPv>
    80003b3c:	00090513          	mv	a0,s2
    80003b40:	00009097          	auipc	ra,0x9
    80003b44:	f98080e7          	jalr	-104(ra) # 8000cad8 <_Unwind_Resume>
    80003b48:	00050913          	mv	s2,a0
    threads[1] = new WorkerB();
    80003b4c:	00048513          	mv	a0,s1
    80003b50:	ffffe097          	auipc	ra,0xffffe
    80003b54:	304080e7          	jalr	772(ra) # 80001e54 <_ZdlPv>
    80003b58:	00090513          	mv	a0,s2
    80003b5c:	00009097          	auipc	ra,0x9
    80003b60:	f7c080e7          	jalr	-132(ra) # 8000cad8 <_Unwind_Resume>
    80003b64:	00050913          	mv	s2,a0
    threads[2] = new WorkerC();
    80003b68:	00048513          	mv	a0,s1
    80003b6c:	ffffe097          	auipc	ra,0xffffe
    80003b70:	2e8080e7          	jalr	744(ra) # 80001e54 <_ZdlPv>
    80003b74:	00090513          	mv	a0,s2
    80003b78:	00009097          	auipc	ra,0x9
    80003b7c:	f60080e7          	jalr	-160(ra) # 8000cad8 <_Unwind_Resume>
    80003b80:	00050913          	mv	s2,a0
    threads[3] = new WorkerD();
    80003b84:	00048513          	mv	a0,s1
    80003b88:	ffffe097          	auipc	ra,0xffffe
    80003b8c:	2cc080e7          	jalr	716(ra) # 80001e54 <_ZdlPv>
    80003b90:	00090513          	mv	a0,s2
    80003b94:	00009097          	auipc	ra,0x9
    80003b98:	f44080e7          	jalr	-188(ra) # 8000cad8 <_Unwind_Resume>
}
    80003b9c:	03813083          	ld	ra,56(sp)
    80003ba0:	03013403          	ld	s0,48(sp)
    80003ba4:	02813483          	ld	s1,40(sp)
    80003ba8:	02013903          	ld	s2,32(sp)
    80003bac:	04010113          	addi	sp,sp,64
    80003bb0:	00008067          	ret

0000000080003bb4 <_ZN7WorkerAD1Ev>:
class WorkerA: public Thread {
    80003bb4:	ff010113          	addi	sp,sp,-16
    80003bb8:	00113423          	sd	ra,8(sp)
    80003bbc:	00813023          	sd	s0,0(sp)
    80003bc0:	01010413          	addi	s0,sp,16
    80003bc4:	00008797          	auipc	a5,0x8
    80003bc8:	b7c78793          	addi	a5,a5,-1156 # 8000b740 <_ZTV7WorkerA+0x10>
    80003bcc:	00f53023          	sd	a5,0(a0)
    80003bd0:	ffffe097          	auipc	ra,0xffffe
    80003bd4:	1b8080e7          	jalr	440(ra) # 80001d88 <_ZN6ThreadD1Ev>
    80003bd8:	00813083          	ld	ra,8(sp)
    80003bdc:	00013403          	ld	s0,0(sp)
    80003be0:	01010113          	addi	sp,sp,16
    80003be4:	00008067          	ret

0000000080003be8 <_ZN7WorkerAD0Ev>:
    80003be8:	fe010113          	addi	sp,sp,-32
    80003bec:	00113c23          	sd	ra,24(sp)
    80003bf0:	00813823          	sd	s0,16(sp)
    80003bf4:	00913423          	sd	s1,8(sp)
    80003bf8:	02010413          	addi	s0,sp,32
    80003bfc:	00050493          	mv	s1,a0
    80003c00:	00008797          	auipc	a5,0x8
    80003c04:	b4078793          	addi	a5,a5,-1216 # 8000b740 <_ZTV7WorkerA+0x10>
    80003c08:	00f53023          	sd	a5,0(a0)
    80003c0c:	ffffe097          	auipc	ra,0xffffe
    80003c10:	17c080e7          	jalr	380(ra) # 80001d88 <_ZN6ThreadD1Ev>
    80003c14:	00048513          	mv	a0,s1
    80003c18:	ffffe097          	auipc	ra,0xffffe
    80003c1c:	23c080e7          	jalr	572(ra) # 80001e54 <_ZdlPv>
    80003c20:	01813083          	ld	ra,24(sp)
    80003c24:	01013403          	ld	s0,16(sp)
    80003c28:	00813483          	ld	s1,8(sp)
    80003c2c:	02010113          	addi	sp,sp,32
    80003c30:	00008067          	ret

0000000080003c34 <_ZN7WorkerBD1Ev>:
class WorkerB: public Thread {
    80003c34:	ff010113          	addi	sp,sp,-16
    80003c38:	00113423          	sd	ra,8(sp)
    80003c3c:	00813023          	sd	s0,0(sp)
    80003c40:	01010413          	addi	s0,sp,16
    80003c44:	00008797          	auipc	a5,0x8
    80003c48:	b2478793          	addi	a5,a5,-1244 # 8000b768 <_ZTV7WorkerB+0x10>
    80003c4c:	00f53023          	sd	a5,0(a0)
    80003c50:	ffffe097          	auipc	ra,0xffffe
    80003c54:	138080e7          	jalr	312(ra) # 80001d88 <_ZN6ThreadD1Ev>
    80003c58:	00813083          	ld	ra,8(sp)
    80003c5c:	00013403          	ld	s0,0(sp)
    80003c60:	01010113          	addi	sp,sp,16
    80003c64:	00008067          	ret

0000000080003c68 <_ZN7WorkerBD0Ev>:
    80003c68:	fe010113          	addi	sp,sp,-32
    80003c6c:	00113c23          	sd	ra,24(sp)
    80003c70:	00813823          	sd	s0,16(sp)
    80003c74:	00913423          	sd	s1,8(sp)
    80003c78:	02010413          	addi	s0,sp,32
    80003c7c:	00050493          	mv	s1,a0
    80003c80:	00008797          	auipc	a5,0x8
    80003c84:	ae878793          	addi	a5,a5,-1304 # 8000b768 <_ZTV7WorkerB+0x10>
    80003c88:	00f53023          	sd	a5,0(a0)
    80003c8c:	ffffe097          	auipc	ra,0xffffe
    80003c90:	0fc080e7          	jalr	252(ra) # 80001d88 <_ZN6ThreadD1Ev>
    80003c94:	00048513          	mv	a0,s1
    80003c98:	ffffe097          	auipc	ra,0xffffe
    80003c9c:	1bc080e7          	jalr	444(ra) # 80001e54 <_ZdlPv>
    80003ca0:	01813083          	ld	ra,24(sp)
    80003ca4:	01013403          	ld	s0,16(sp)
    80003ca8:	00813483          	ld	s1,8(sp)
    80003cac:	02010113          	addi	sp,sp,32
    80003cb0:	00008067          	ret

0000000080003cb4 <_ZN7WorkerCD1Ev>:
class WorkerC: public Thread {
    80003cb4:	ff010113          	addi	sp,sp,-16
    80003cb8:	00113423          	sd	ra,8(sp)
    80003cbc:	00813023          	sd	s0,0(sp)
    80003cc0:	01010413          	addi	s0,sp,16
    80003cc4:	00008797          	auipc	a5,0x8
    80003cc8:	acc78793          	addi	a5,a5,-1332 # 8000b790 <_ZTV7WorkerC+0x10>
    80003ccc:	00f53023          	sd	a5,0(a0)
    80003cd0:	ffffe097          	auipc	ra,0xffffe
    80003cd4:	0b8080e7          	jalr	184(ra) # 80001d88 <_ZN6ThreadD1Ev>
    80003cd8:	00813083          	ld	ra,8(sp)
    80003cdc:	00013403          	ld	s0,0(sp)
    80003ce0:	01010113          	addi	sp,sp,16
    80003ce4:	00008067          	ret

0000000080003ce8 <_ZN7WorkerCD0Ev>:
    80003ce8:	fe010113          	addi	sp,sp,-32
    80003cec:	00113c23          	sd	ra,24(sp)
    80003cf0:	00813823          	sd	s0,16(sp)
    80003cf4:	00913423          	sd	s1,8(sp)
    80003cf8:	02010413          	addi	s0,sp,32
    80003cfc:	00050493          	mv	s1,a0
    80003d00:	00008797          	auipc	a5,0x8
    80003d04:	a9078793          	addi	a5,a5,-1392 # 8000b790 <_ZTV7WorkerC+0x10>
    80003d08:	00f53023          	sd	a5,0(a0)
    80003d0c:	ffffe097          	auipc	ra,0xffffe
    80003d10:	07c080e7          	jalr	124(ra) # 80001d88 <_ZN6ThreadD1Ev>
    80003d14:	00048513          	mv	a0,s1
    80003d18:	ffffe097          	auipc	ra,0xffffe
    80003d1c:	13c080e7          	jalr	316(ra) # 80001e54 <_ZdlPv>
    80003d20:	01813083          	ld	ra,24(sp)
    80003d24:	01013403          	ld	s0,16(sp)
    80003d28:	00813483          	ld	s1,8(sp)
    80003d2c:	02010113          	addi	sp,sp,32
    80003d30:	00008067          	ret

0000000080003d34 <_ZN7WorkerDD1Ev>:
class WorkerD: public Thread {
    80003d34:	ff010113          	addi	sp,sp,-16
    80003d38:	00113423          	sd	ra,8(sp)
    80003d3c:	00813023          	sd	s0,0(sp)
    80003d40:	01010413          	addi	s0,sp,16
    80003d44:	00008797          	auipc	a5,0x8
    80003d48:	a7478793          	addi	a5,a5,-1420 # 8000b7b8 <_ZTV7WorkerD+0x10>
    80003d4c:	00f53023          	sd	a5,0(a0)
    80003d50:	ffffe097          	auipc	ra,0xffffe
    80003d54:	038080e7          	jalr	56(ra) # 80001d88 <_ZN6ThreadD1Ev>
    80003d58:	00813083          	ld	ra,8(sp)
    80003d5c:	00013403          	ld	s0,0(sp)
    80003d60:	01010113          	addi	sp,sp,16
    80003d64:	00008067          	ret

0000000080003d68 <_ZN7WorkerDD0Ev>:
    80003d68:	fe010113          	addi	sp,sp,-32
    80003d6c:	00113c23          	sd	ra,24(sp)
    80003d70:	00813823          	sd	s0,16(sp)
    80003d74:	00913423          	sd	s1,8(sp)
    80003d78:	02010413          	addi	s0,sp,32
    80003d7c:	00050493          	mv	s1,a0
    80003d80:	00008797          	auipc	a5,0x8
    80003d84:	a3878793          	addi	a5,a5,-1480 # 8000b7b8 <_ZTV7WorkerD+0x10>
    80003d88:	00f53023          	sd	a5,0(a0)
    80003d8c:	ffffe097          	auipc	ra,0xffffe
    80003d90:	ffc080e7          	jalr	-4(ra) # 80001d88 <_ZN6ThreadD1Ev>
    80003d94:	00048513          	mv	a0,s1
    80003d98:	ffffe097          	auipc	ra,0xffffe
    80003d9c:	0bc080e7          	jalr	188(ra) # 80001e54 <_ZdlPv>
    80003da0:	01813083          	ld	ra,24(sp)
    80003da4:	01013403          	ld	s0,16(sp)
    80003da8:	00813483          	ld	s1,8(sp)
    80003dac:	02010113          	addi	sp,sp,32
    80003db0:	00008067          	ret

0000000080003db4 <_ZN7WorkerA3runEv>:
    void run() override {
    80003db4:	ff010113          	addi	sp,sp,-16
    80003db8:	00113423          	sd	ra,8(sp)
    80003dbc:	00813023          	sd	s0,0(sp)
    80003dc0:	01010413          	addi	s0,sp,16
        workerBodyA(nullptr);
    80003dc4:	00000593          	li	a1,0
    80003dc8:	fffff097          	auipc	ra,0xfffff
    80003dcc:	774080e7          	jalr	1908(ra) # 8000353c <_ZN7WorkerA11workerBodyAEPv>
    }
    80003dd0:	00813083          	ld	ra,8(sp)
    80003dd4:	00013403          	ld	s0,0(sp)
    80003dd8:	01010113          	addi	sp,sp,16
    80003ddc:	00008067          	ret

0000000080003de0 <_ZN7WorkerB3runEv>:
    void run() override {
    80003de0:	ff010113          	addi	sp,sp,-16
    80003de4:	00113423          	sd	ra,8(sp)
    80003de8:	00813023          	sd	s0,0(sp)
    80003dec:	01010413          	addi	s0,sp,16
        workerBodyB(nullptr);
    80003df0:	00000593          	li	a1,0
    80003df4:	00000097          	auipc	ra,0x0
    80003df8:	814080e7          	jalr	-2028(ra) # 80003608 <_ZN7WorkerB11workerBodyBEPv>
    }
    80003dfc:	00813083          	ld	ra,8(sp)
    80003e00:	00013403          	ld	s0,0(sp)
    80003e04:	01010113          	addi	sp,sp,16
    80003e08:	00008067          	ret

0000000080003e0c <_ZN7WorkerC3runEv>:
    void run() override {
    80003e0c:	ff010113          	addi	sp,sp,-16
    80003e10:	00113423          	sd	ra,8(sp)
    80003e14:	00813023          	sd	s0,0(sp)
    80003e18:	01010413          	addi	s0,sp,16
        workerBodyC(nullptr);
    80003e1c:	00000593          	li	a1,0
    80003e20:	00000097          	auipc	ra,0x0
    80003e24:	8bc080e7          	jalr	-1860(ra) # 800036dc <_ZN7WorkerC11workerBodyCEPv>
    }
    80003e28:	00813083          	ld	ra,8(sp)
    80003e2c:	00013403          	ld	s0,0(sp)
    80003e30:	01010113          	addi	sp,sp,16
    80003e34:	00008067          	ret

0000000080003e38 <_ZN7WorkerD3runEv>:
    void run() override {
    80003e38:	ff010113          	addi	sp,sp,-16
    80003e3c:	00113423          	sd	ra,8(sp)
    80003e40:	00813023          	sd	s0,0(sp)
    80003e44:	01010413          	addi	s0,sp,16
        workerBodyD(nullptr);
    80003e48:	00000593          	li	a1,0
    80003e4c:	00000097          	auipc	ra,0x0
    80003e50:	a10080e7          	jalr	-1520(ra) # 8000385c <_ZN7WorkerD11workerBodyDEPv>
    }
    80003e54:	00813083          	ld	ra,8(sp)
    80003e58:	00013403          	ld	s0,0(sp)
    80003e5c:	01010113          	addi	sp,sp,16
    80003e60:	00008067          	ret

0000000080003e64 <_Z20testConsumerProducerv>:

        td->sem->signal();
    }
};

void testConsumerProducer() {
    80003e64:	f8010113          	addi	sp,sp,-128
    80003e68:	06113c23          	sd	ra,120(sp)
    80003e6c:	06813823          	sd	s0,112(sp)
    80003e70:	06913423          	sd	s1,104(sp)
    80003e74:	07213023          	sd	s2,96(sp)
    80003e78:	05313c23          	sd	s3,88(sp)
    80003e7c:	05413823          	sd	s4,80(sp)
    80003e80:	05513423          	sd	s5,72(sp)
    80003e84:	05613023          	sd	s6,64(sp)
    80003e88:	03713c23          	sd	s7,56(sp)
    80003e8c:	03813823          	sd	s8,48(sp)
    80003e90:	03913423          	sd	s9,40(sp)
    80003e94:	08010413          	addi	s0,sp,128
    delete waitForAll;
    for (int i = 0; i < threadNum; i++) {
        delete producers[i];
    }
    delete consumer;
    delete buffer;
    80003e98:	00010c13          	mv	s8,sp
    printString("Unesite broj proizvodjaca?\n");
    80003e9c:	00005517          	auipc	a0,0x5
    80003ea0:	43450513          	addi	a0,a0,1076 # 800092d0 <CONSOLE_STATUS+0x2c0>
    80003ea4:	00001097          	auipc	ra,0x1
    80003ea8:	5a8080e7          	jalr	1448(ra) # 8000544c <_Z11printStringPKc>
    getString(input, 30);
    80003eac:	01e00593          	li	a1,30
    80003eb0:	f8040493          	addi	s1,s0,-128
    80003eb4:	00048513          	mv	a0,s1
    80003eb8:	00001097          	auipc	ra,0x1
    80003ebc:	61c080e7          	jalr	1564(ra) # 800054d4 <_Z9getStringPci>
    threadNum = stringToInt(input);
    80003ec0:	00048513          	mv	a0,s1
    80003ec4:	00001097          	auipc	ra,0x1
    80003ec8:	6e8080e7          	jalr	1768(ra) # 800055ac <_Z11stringToIntPKc>
    80003ecc:	00050993          	mv	s3,a0
    printString("Unesite velicinu bafera?\n");
    80003ed0:	00005517          	auipc	a0,0x5
    80003ed4:	42050513          	addi	a0,a0,1056 # 800092f0 <CONSOLE_STATUS+0x2e0>
    80003ed8:	00001097          	auipc	ra,0x1
    80003edc:	574080e7          	jalr	1396(ra) # 8000544c <_Z11printStringPKc>
    getString(input, 30);
    80003ee0:	01e00593          	li	a1,30
    80003ee4:	00048513          	mv	a0,s1
    80003ee8:	00001097          	auipc	ra,0x1
    80003eec:	5ec080e7          	jalr	1516(ra) # 800054d4 <_Z9getStringPci>
    n = stringToInt(input);
    80003ef0:	00048513          	mv	a0,s1
    80003ef4:	00001097          	auipc	ra,0x1
    80003ef8:	6b8080e7          	jalr	1720(ra) # 800055ac <_Z11stringToIntPKc>
    80003efc:	00050493          	mv	s1,a0
    printString("Broj proizvodjaca ");
    80003f00:	00005517          	auipc	a0,0x5
    80003f04:	41050513          	addi	a0,a0,1040 # 80009310 <CONSOLE_STATUS+0x300>
    80003f08:	00001097          	auipc	ra,0x1
    80003f0c:	544080e7          	jalr	1348(ra) # 8000544c <_Z11printStringPKc>
    printInt(threadNum);
    80003f10:	00000613          	li	a2,0
    80003f14:	00a00593          	li	a1,10
    80003f18:	00098513          	mv	a0,s3
    80003f1c:	00001097          	auipc	ra,0x1
    80003f20:	6e0080e7          	jalr	1760(ra) # 800055fc <_Z8printIntiii>
    printString(" i velicina bafera ");
    80003f24:	00005517          	auipc	a0,0x5
    80003f28:	40450513          	addi	a0,a0,1028 # 80009328 <CONSOLE_STATUS+0x318>
    80003f2c:	00001097          	auipc	ra,0x1
    80003f30:	520080e7          	jalr	1312(ra) # 8000544c <_Z11printStringPKc>
    printInt(n);
    80003f34:	00000613          	li	a2,0
    80003f38:	00a00593          	li	a1,10
    80003f3c:	00048513          	mv	a0,s1
    80003f40:	00001097          	auipc	ra,0x1
    80003f44:	6bc080e7          	jalr	1724(ra) # 800055fc <_Z8printIntiii>
    printString(".\n");
    80003f48:	00005517          	auipc	a0,0x5
    80003f4c:	3f850513          	addi	a0,a0,1016 # 80009340 <CONSOLE_STATUS+0x330>
    80003f50:	00001097          	auipc	ra,0x1
    80003f54:	4fc080e7          	jalr	1276(ra) # 8000544c <_Z11printStringPKc>
    if (threadNum > n) {
    80003f58:	0334c463          	blt	s1,s3,80003f80 <_Z20testConsumerProducerv+0x11c>
    } else if (threadNum < 1) {
    80003f5c:	03305c63          	blez	s3,80003f94 <_Z20testConsumerProducerv+0x130>
    BufferCPP *buffer = new BufferCPP(n);
    80003f60:	03800513          	li	a0,56
    80003f64:	ffffe097          	auipc	ra,0xffffe
    80003f68:	ea0080e7          	jalr	-352(ra) # 80001e04 <_Znwm>
    80003f6c:	00050a93          	mv	s5,a0
    80003f70:	00048593          	mv	a1,s1
    80003f74:	00001097          	auipc	ra,0x1
    80003f78:	7a8080e7          	jalr	1960(ra) # 8000571c <_ZN9BufferCPPC1Ei>
    80003f7c:	0300006f          	j	80003fac <_Z20testConsumerProducerv+0x148>
        printString("Broj proizvodjaca ne sme biti manji od velicine bafera!\n");
    80003f80:	00005517          	auipc	a0,0x5
    80003f84:	3c850513          	addi	a0,a0,968 # 80009348 <CONSOLE_STATUS+0x338>
    80003f88:	00001097          	auipc	ra,0x1
    80003f8c:	4c4080e7          	jalr	1220(ra) # 8000544c <_Z11printStringPKc>
        return;
    80003f90:	0140006f          	j	80003fa4 <_Z20testConsumerProducerv+0x140>
        printString("Broj proizvodjaca mora biti veci od nula!\n");
    80003f94:	00005517          	auipc	a0,0x5
    80003f98:	3f450513          	addi	a0,a0,1012 # 80009388 <CONSOLE_STATUS+0x378>
    80003f9c:	00001097          	auipc	ra,0x1
    80003fa0:	4b0080e7          	jalr	1200(ra) # 8000544c <_Z11printStringPKc>
        return;
    80003fa4:	000c0113          	mv	sp,s8
    80003fa8:	2140006f          	j	800041bc <_Z20testConsumerProducerv+0x358>
    waitForAll = new Semaphore(0);
    80003fac:	01800513          	li	a0,24
    80003fb0:	ffffe097          	auipc	ra,0xffffe
    80003fb4:	e54080e7          	jalr	-428(ra) # 80001e04 <_Znwm>
    80003fb8:	00050913          	mv	s2,a0
    80003fbc:	00000593          	li	a1,0
    80003fc0:	ffffe097          	auipc	ra,0xffffe
    80003fc4:	058080e7          	jalr	88(ra) # 80002018 <_ZN9SemaphoreC1Ej>
    80003fc8:	00008797          	auipc	a5,0x8
    80003fcc:	a127bc23          	sd	s2,-1512(a5) # 8000b9e0 <_ZL10waitForAll>
    Thread *producers[threadNum];
    80003fd0:	00399793          	slli	a5,s3,0x3
    80003fd4:	00f78793          	addi	a5,a5,15
    80003fd8:	ff07f793          	andi	a5,a5,-16
    80003fdc:	40f10133          	sub	sp,sp,a5
    80003fe0:	00010a13          	mv	s4,sp
    thread_data threadData[threadNum + 1];
    80003fe4:	0019871b          	addiw	a4,s3,1
    80003fe8:	00171793          	slli	a5,a4,0x1
    80003fec:	00e787b3          	add	a5,a5,a4
    80003ff0:	00379793          	slli	a5,a5,0x3
    80003ff4:	00f78793          	addi	a5,a5,15
    80003ff8:	ff07f793          	andi	a5,a5,-16
    80003ffc:	40f10133          	sub	sp,sp,a5
    80004000:	00010b13          	mv	s6,sp
    threadData[threadNum].id = threadNum;
    80004004:	00199493          	slli	s1,s3,0x1
    80004008:	013484b3          	add	s1,s1,s3
    8000400c:	00349493          	slli	s1,s1,0x3
    80004010:	009b04b3          	add	s1,s6,s1
    80004014:	0134a023          	sw	s3,0(s1)
    threadData[threadNum].buffer = buffer;
    80004018:	0154b423          	sd	s5,8(s1)
    threadData[threadNum].sem = waitForAll;
    8000401c:	0124b823          	sd	s2,16(s1)
    Thread *consumer = new Consumer(&threadData[threadNum]);
    80004020:	02800513          	li	a0,40
    80004024:	ffffe097          	auipc	ra,0xffffe
    80004028:	de0080e7          	jalr	-544(ra) # 80001e04 <_Znwm>
    8000402c:	00050b93          	mv	s7,a0
    Consumer(thread_data *_td) : Thread(), td(_td) {}
    80004030:	ffffe097          	auipc	ra,0xffffe
    80004034:	edc080e7          	jalr	-292(ra) # 80001f0c <_ZN6ThreadC1Ev>
    80004038:	00007797          	auipc	a5,0x7
    8000403c:	7f878793          	addi	a5,a5,2040 # 8000b830 <_ZTV8Consumer+0x10>
    80004040:	00fbb023          	sd	a5,0(s7)
    80004044:	029bb023          	sd	s1,32(s7)
    consumer->start();
    80004048:	000b8513          	mv	a0,s7
    8000404c:	ffffe097          	auipc	ra,0xffffe
    80004050:	f50080e7          	jalr	-176(ra) # 80001f9c <_ZN6Thread5startEv>
    threadData[0].id = 0;
    80004054:	000b2023          	sw	zero,0(s6)
    threadData[0].buffer = buffer;
    80004058:	015b3423          	sd	s5,8(s6)
    threadData[0].sem = waitForAll;
    8000405c:	00008797          	auipc	a5,0x8
    80004060:	9847b783          	ld	a5,-1660(a5) # 8000b9e0 <_ZL10waitForAll>
    80004064:	00fb3823          	sd	a5,16(s6)
    producers[0] = new ProducerKeyborad(&threadData[0]);
    80004068:	02800513          	li	a0,40
    8000406c:	ffffe097          	auipc	ra,0xffffe
    80004070:	d98080e7          	jalr	-616(ra) # 80001e04 <_Znwm>
    80004074:	00050493          	mv	s1,a0
    ProducerKeyborad(thread_data *_td) : Thread(), td(_td) {}
    80004078:	ffffe097          	auipc	ra,0xffffe
    8000407c:	e94080e7          	jalr	-364(ra) # 80001f0c <_ZN6ThreadC1Ev>
    80004080:	00007797          	auipc	a5,0x7
    80004084:	76078793          	addi	a5,a5,1888 # 8000b7e0 <_ZTV16ProducerKeyborad+0x10>
    80004088:	00f4b023          	sd	a5,0(s1)
    8000408c:	0364b023          	sd	s6,32(s1)
    producers[0] = new ProducerKeyborad(&threadData[0]);
    80004090:	009a3023          	sd	s1,0(s4)
    producers[0]->start();
    80004094:	00048513          	mv	a0,s1
    80004098:	ffffe097          	auipc	ra,0xffffe
    8000409c:	f04080e7          	jalr	-252(ra) # 80001f9c <_ZN6Thread5startEv>
    for (int i = 1; i < threadNum; i++) {
    800040a0:	00100913          	li	s2,1
    800040a4:	0300006f          	j	800040d4 <_Z20testConsumerProducerv+0x270>
    Producer(thread_data *_td) : Thread(), td(_td) {}
    800040a8:	00007797          	auipc	a5,0x7
    800040ac:	76078793          	addi	a5,a5,1888 # 8000b808 <_ZTV8Producer+0x10>
    800040b0:	00fcb023          	sd	a5,0(s9)
    800040b4:	029cb023          	sd	s1,32(s9)
        producers[i] = new Producer(&threadData[i]);
    800040b8:	00391793          	slli	a5,s2,0x3
    800040bc:	00fa07b3          	add	a5,s4,a5
    800040c0:	0197b023          	sd	s9,0(a5)
        producers[i]->start();
    800040c4:	000c8513          	mv	a0,s9
    800040c8:	ffffe097          	auipc	ra,0xffffe
    800040cc:	ed4080e7          	jalr	-300(ra) # 80001f9c <_ZN6Thread5startEv>
    for (int i = 1; i < threadNum; i++) {
    800040d0:	0019091b          	addiw	s2,s2,1
    800040d4:	05395263          	bge	s2,s3,80004118 <_Z20testConsumerProducerv+0x2b4>
        threadData[i].id = i;
    800040d8:	00191493          	slli	s1,s2,0x1
    800040dc:	012484b3          	add	s1,s1,s2
    800040e0:	00349493          	slli	s1,s1,0x3
    800040e4:	009b04b3          	add	s1,s6,s1
    800040e8:	0124a023          	sw	s2,0(s1)
        threadData[i].buffer = buffer;
    800040ec:	0154b423          	sd	s5,8(s1)
        threadData[i].sem = waitForAll;
    800040f0:	00008797          	auipc	a5,0x8
    800040f4:	8f07b783          	ld	a5,-1808(a5) # 8000b9e0 <_ZL10waitForAll>
    800040f8:	00f4b823          	sd	a5,16(s1)
        producers[i] = new Producer(&threadData[i]);
    800040fc:	02800513          	li	a0,40
    80004100:	ffffe097          	auipc	ra,0xffffe
    80004104:	d04080e7          	jalr	-764(ra) # 80001e04 <_Znwm>
    80004108:	00050c93          	mv	s9,a0
    Producer(thread_data *_td) : Thread(), td(_td) {}
    8000410c:	ffffe097          	auipc	ra,0xffffe
    80004110:	e00080e7          	jalr	-512(ra) # 80001f0c <_ZN6ThreadC1Ev>
    80004114:	f95ff06f          	j	800040a8 <_Z20testConsumerProducerv+0x244>
    Thread::dispatch();
    80004118:	ffffe097          	auipc	ra,0xffffe
    8000411c:	ed8080e7          	jalr	-296(ra) # 80001ff0 <_ZN6Thread8dispatchEv>
    for (int i = 0; i <= threadNum; i++) {
    80004120:	00000493          	li	s1,0
    80004124:	0099ce63          	blt	s3,s1,80004140 <_Z20testConsumerProducerv+0x2dc>
        waitForAll->wait();
    80004128:	00008517          	auipc	a0,0x8
    8000412c:	8b853503          	ld	a0,-1864(a0) # 8000b9e0 <_ZL10waitForAll>
    80004130:	ffffe097          	auipc	ra,0xffffe
    80004134:	f24080e7          	jalr	-220(ra) # 80002054 <_ZN9Semaphore4waitEv>
    for (int i = 0; i <= threadNum; i++) {
    80004138:	0014849b          	addiw	s1,s1,1
    8000413c:	fe9ff06f          	j	80004124 <_Z20testConsumerProducerv+0x2c0>
    delete waitForAll;
    80004140:	00008517          	auipc	a0,0x8
    80004144:	8a053503          	ld	a0,-1888(a0) # 8000b9e0 <_ZL10waitForAll>
    80004148:	00050863          	beqz	a0,80004158 <_Z20testConsumerProducerv+0x2f4>
    8000414c:	00053783          	ld	a5,0(a0)
    80004150:	0087b783          	ld	a5,8(a5)
    80004154:	000780e7          	jalr	a5
    for (int i = 0; i <= threadNum; i++) {
    80004158:	00000493          	li	s1,0
    8000415c:	0080006f          	j	80004164 <_Z20testConsumerProducerv+0x300>
    for (int i = 0; i < threadNum; i++) {
    80004160:	0014849b          	addiw	s1,s1,1
    80004164:	0334d263          	bge	s1,s3,80004188 <_Z20testConsumerProducerv+0x324>
        delete producers[i];
    80004168:	00349793          	slli	a5,s1,0x3
    8000416c:	00fa07b3          	add	a5,s4,a5
    80004170:	0007b503          	ld	a0,0(a5)
    80004174:	fe0506e3          	beqz	a0,80004160 <_Z20testConsumerProducerv+0x2fc>
    80004178:	00053783          	ld	a5,0(a0)
    8000417c:	0087b783          	ld	a5,8(a5)
    80004180:	000780e7          	jalr	a5
    80004184:	fddff06f          	j	80004160 <_Z20testConsumerProducerv+0x2fc>
    delete consumer;
    80004188:	000b8a63          	beqz	s7,8000419c <_Z20testConsumerProducerv+0x338>
    8000418c:	000bb783          	ld	a5,0(s7)
    80004190:	0087b783          	ld	a5,8(a5)
    80004194:	000b8513          	mv	a0,s7
    80004198:	000780e7          	jalr	a5
    delete buffer;
    8000419c:	000a8e63          	beqz	s5,800041b8 <_Z20testConsumerProducerv+0x354>
    800041a0:	000a8513          	mv	a0,s5
    800041a4:	00002097          	auipc	ra,0x2
    800041a8:	870080e7          	jalr	-1936(ra) # 80005a14 <_ZN9BufferCPPD1Ev>
    800041ac:	000a8513          	mv	a0,s5
    800041b0:	ffffe097          	auipc	ra,0xffffe
    800041b4:	ca4080e7          	jalr	-860(ra) # 80001e54 <_ZdlPv>
    800041b8:	000c0113          	mv	sp,s8
}
    800041bc:	f8040113          	addi	sp,s0,-128
    800041c0:	07813083          	ld	ra,120(sp)
    800041c4:	07013403          	ld	s0,112(sp)
    800041c8:	06813483          	ld	s1,104(sp)
    800041cc:	06013903          	ld	s2,96(sp)
    800041d0:	05813983          	ld	s3,88(sp)
    800041d4:	05013a03          	ld	s4,80(sp)
    800041d8:	04813a83          	ld	s5,72(sp)
    800041dc:	04013b03          	ld	s6,64(sp)
    800041e0:	03813b83          	ld	s7,56(sp)
    800041e4:	03013c03          	ld	s8,48(sp)
    800041e8:	02813c83          	ld	s9,40(sp)
    800041ec:	08010113          	addi	sp,sp,128
    800041f0:	00008067          	ret
    800041f4:	00050493          	mv	s1,a0
    BufferCPP *buffer = new BufferCPP(n);
    800041f8:	000a8513          	mv	a0,s5
    800041fc:	ffffe097          	auipc	ra,0xffffe
    80004200:	c58080e7          	jalr	-936(ra) # 80001e54 <_ZdlPv>
    80004204:	00048513          	mv	a0,s1
    80004208:	00009097          	auipc	ra,0x9
    8000420c:	8d0080e7          	jalr	-1840(ra) # 8000cad8 <_Unwind_Resume>
    80004210:	00050493          	mv	s1,a0
    waitForAll = new Semaphore(0);
    80004214:	00090513          	mv	a0,s2
    80004218:	ffffe097          	auipc	ra,0xffffe
    8000421c:	c3c080e7          	jalr	-964(ra) # 80001e54 <_ZdlPv>
    80004220:	00048513          	mv	a0,s1
    80004224:	00009097          	auipc	ra,0x9
    80004228:	8b4080e7          	jalr	-1868(ra) # 8000cad8 <_Unwind_Resume>
    8000422c:	00050493          	mv	s1,a0
    Thread *consumer = new Consumer(&threadData[threadNum]);
    80004230:	000b8513          	mv	a0,s7
    80004234:	ffffe097          	auipc	ra,0xffffe
    80004238:	c20080e7          	jalr	-992(ra) # 80001e54 <_ZdlPv>
    8000423c:	00048513          	mv	a0,s1
    80004240:	00009097          	auipc	ra,0x9
    80004244:	898080e7          	jalr	-1896(ra) # 8000cad8 <_Unwind_Resume>
    80004248:	00050913          	mv	s2,a0
    producers[0] = new ProducerKeyborad(&threadData[0]);
    8000424c:	00048513          	mv	a0,s1
    80004250:	ffffe097          	auipc	ra,0xffffe
    80004254:	c04080e7          	jalr	-1020(ra) # 80001e54 <_ZdlPv>
    80004258:	00090513          	mv	a0,s2
    8000425c:	00009097          	auipc	ra,0x9
    80004260:	87c080e7          	jalr	-1924(ra) # 8000cad8 <_Unwind_Resume>
    80004264:	00050493          	mv	s1,a0
        producers[i] = new Producer(&threadData[i]);
    80004268:	000c8513          	mv	a0,s9
    8000426c:	ffffe097          	auipc	ra,0xffffe
    80004270:	be8080e7          	jalr	-1048(ra) # 80001e54 <_ZdlPv>
    80004274:	00048513          	mv	a0,s1
    80004278:	00009097          	auipc	ra,0x9
    8000427c:	860080e7          	jalr	-1952(ra) # 8000cad8 <_Unwind_Resume>

0000000080004280 <_ZN8Consumer3runEv>:
    void run() override {
    80004280:	fd010113          	addi	sp,sp,-48
    80004284:	02113423          	sd	ra,40(sp)
    80004288:	02813023          	sd	s0,32(sp)
    8000428c:	00913c23          	sd	s1,24(sp)
    80004290:	01213823          	sd	s2,16(sp)
    80004294:	01313423          	sd	s3,8(sp)
    80004298:	03010413          	addi	s0,sp,48
    8000429c:	00050913          	mv	s2,a0
        int i = 0;
    800042a0:	00000993          	li	s3,0
    800042a4:	0100006f          	j	800042b4 <_ZN8Consumer3runEv+0x34>
                Console::putc('\n');
    800042a8:	00a00513          	li	a0,10
    800042ac:	ffffe097          	auipc	ra,0xffffe
    800042b0:	ea8080e7          	jalr	-344(ra) # 80002154 <_ZN7Console4putcEc>
        while (!threadEnd) {
    800042b4:	00007797          	auipc	a5,0x7
    800042b8:	7247a783          	lw	a5,1828(a5) # 8000b9d8 <_ZL9threadEnd>
    800042bc:	04079a63          	bnez	a5,80004310 <_ZN8Consumer3runEv+0x90>
            int key = td->buffer->get();
    800042c0:	02093783          	ld	a5,32(s2)
    800042c4:	0087b503          	ld	a0,8(a5)
    800042c8:	00001097          	auipc	ra,0x1
    800042cc:	638080e7          	jalr	1592(ra) # 80005900 <_ZN9BufferCPP3getEv>
            i++;
    800042d0:	0019849b          	addiw	s1,s3,1
    800042d4:	0004899b          	sext.w	s3,s1
            Console::putc(key);
    800042d8:	0ff57513          	andi	a0,a0,255
    800042dc:	ffffe097          	auipc	ra,0xffffe
    800042e0:	e78080e7          	jalr	-392(ra) # 80002154 <_ZN7Console4putcEc>
            if (i % 80 == 0) {
    800042e4:	05000793          	li	a5,80
    800042e8:	02f4e4bb          	remw	s1,s1,a5
    800042ec:	fc0494e3          	bnez	s1,800042b4 <_ZN8Consumer3runEv+0x34>
    800042f0:	fb9ff06f          	j	800042a8 <_ZN8Consumer3runEv+0x28>
            int key = td->buffer->get();
    800042f4:	02093783          	ld	a5,32(s2)
    800042f8:	0087b503          	ld	a0,8(a5)
    800042fc:	00001097          	auipc	ra,0x1
    80004300:	604080e7          	jalr	1540(ra) # 80005900 <_ZN9BufferCPP3getEv>
            Console::putc(key);
    80004304:	0ff57513          	andi	a0,a0,255
    80004308:	ffffe097          	auipc	ra,0xffffe
    8000430c:	e4c080e7          	jalr	-436(ra) # 80002154 <_ZN7Console4putcEc>
        while (td->buffer->getCnt() > 0) {
    80004310:	02093783          	ld	a5,32(s2)
    80004314:	0087b503          	ld	a0,8(a5)
    80004318:	00001097          	auipc	ra,0x1
    8000431c:	674080e7          	jalr	1652(ra) # 8000598c <_ZN9BufferCPP6getCntEv>
    80004320:	fca04ae3          	bgtz	a0,800042f4 <_ZN8Consumer3runEv+0x74>
        td->sem->signal();
    80004324:	02093783          	ld	a5,32(s2)
    80004328:	0107b503          	ld	a0,16(a5)
    8000432c:	ffffe097          	auipc	ra,0xffffe
    80004330:	d54080e7          	jalr	-684(ra) # 80002080 <_ZN9Semaphore6signalEv>
    }
    80004334:	02813083          	ld	ra,40(sp)
    80004338:	02013403          	ld	s0,32(sp)
    8000433c:	01813483          	ld	s1,24(sp)
    80004340:	01013903          	ld	s2,16(sp)
    80004344:	00813983          	ld	s3,8(sp)
    80004348:	03010113          	addi	sp,sp,48
    8000434c:	00008067          	ret

0000000080004350 <_ZN8ConsumerD1Ev>:
class Consumer : public Thread {
    80004350:	ff010113          	addi	sp,sp,-16
    80004354:	00113423          	sd	ra,8(sp)
    80004358:	00813023          	sd	s0,0(sp)
    8000435c:	01010413          	addi	s0,sp,16
    80004360:	00007797          	auipc	a5,0x7
    80004364:	4d078793          	addi	a5,a5,1232 # 8000b830 <_ZTV8Consumer+0x10>
    80004368:	00f53023          	sd	a5,0(a0)
    8000436c:	ffffe097          	auipc	ra,0xffffe
    80004370:	a1c080e7          	jalr	-1508(ra) # 80001d88 <_ZN6ThreadD1Ev>
    80004374:	00813083          	ld	ra,8(sp)
    80004378:	00013403          	ld	s0,0(sp)
    8000437c:	01010113          	addi	sp,sp,16
    80004380:	00008067          	ret

0000000080004384 <_ZN8ConsumerD0Ev>:
    80004384:	fe010113          	addi	sp,sp,-32
    80004388:	00113c23          	sd	ra,24(sp)
    8000438c:	00813823          	sd	s0,16(sp)
    80004390:	00913423          	sd	s1,8(sp)
    80004394:	02010413          	addi	s0,sp,32
    80004398:	00050493          	mv	s1,a0
    8000439c:	00007797          	auipc	a5,0x7
    800043a0:	49478793          	addi	a5,a5,1172 # 8000b830 <_ZTV8Consumer+0x10>
    800043a4:	00f53023          	sd	a5,0(a0)
    800043a8:	ffffe097          	auipc	ra,0xffffe
    800043ac:	9e0080e7          	jalr	-1568(ra) # 80001d88 <_ZN6ThreadD1Ev>
    800043b0:	00048513          	mv	a0,s1
    800043b4:	ffffe097          	auipc	ra,0xffffe
    800043b8:	aa0080e7          	jalr	-1376(ra) # 80001e54 <_ZdlPv>
    800043bc:	01813083          	ld	ra,24(sp)
    800043c0:	01013403          	ld	s0,16(sp)
    800043c4:	00813483          	ld	s1,8(sp)
    800043c8:	02010113          	addi	sp,sp,32
    800043cc:	00008067          	ret

00000000800043d0 <_ZN16ProducerKeyboradD1Ev>:
class ProducerKeyborad : public Thread {
    800043d0:	ff010113          	addi	sp,sp,-16
    800043d4:	00113423          	sd	ra,8(sp)
    800043d8:	00813023          	sd	s0,0(sp)
    800043dc:	01010413          	addi	s0,sp,16
    800043e0:	00007797          	auipc	a5,0x7
    800043e4:	40078793          	addi	a5,a5,1024 # 8000b7e0 <_ZTV16ProducerKeyborad+0x10>
    800043e8:	00f53023          	sd	a5,0(a0)
    800043ec:	ffffe097          	auipc	ra,0xffffe
    800043f0:	99c080e7          	jalr	-1636(ra) # 80001d88 <_ZN6ThreadD1Ev>
    800043f4:	00813083          	ld	ra,8(sp)
    800043f8:	00013403          	ld	s0,0(sp)
    800043fc:	01010113          	addi	sp,sp,16
    80004400:	00008067          	ret

0000000080004404 <_ZN16ProducerKeyboradD0Ev>:
    80004404:	fe010113          	addi	sp,sp,-32
    80004408:	00113c23          	sd	ra,24(sp)
    8000440c:	00813823          	sd	s0,16(sp)
    80004410:	00913423          	sd	s1,8(sp)
    80004414:	02010413          	addi	s0,sp,32
    80004418:	00050493          	mv	s1,a0
    8000441c:	00007797          	auipc	a5,0x7
    80004420:	3c478793          	addi	a5,a5,964 # 8000b7e0 <_ZTV16ProducerKeyborad+0x10>
    80004424:	00f53023          	sd	a5,0(a0)
    80004428:	ffffe097          	auipc	ra,0xffffe
    8000442c:	960080e7          	jalr	-1696(ra) # 80001d88 <_ZN6ThreadD1Ev>
    80004430:	00048513          	mv	a0,s1
    80004434:	ffffe097          	auipc	ra,0xffffe
    80004438:	a20080e7          	jalr	-1504(ra) # 80001e54 <_ZdlPv>
    8000443c:	01813083          	ld	ra,24(sp)
    80004440:	01013403          	ld	s0,16(sp)
    80004444:	00813483          	ld	s1,8(sp)
    80004448:	02010113          	addi	sp,sp,32
    8000444c:	00008067          	ret

0000000080004450 <_ZN8ProducerD1Ev>:
class Producer : public Thread {
    80004450:	ff010113          	addi	sp,sp,-16
    80004454:	00113423          	sd	ra,8(sp)
    80004458:	00813023          	sd	s0,0(sp)
    8000445c:	01010413          	addi	s0,sp,16
    80004460:	00007797          	auipc	a5,0x7
    80004464:	3a878793          	addi	a5,a5,936 # 8000b808 <_ZTV8Producer+0x10>
    80004468:	00f53023          	sd	a5,0(a0)
    8000446c:	ffffe097          	auipc	ra,0xffffe
    80004470:	91c080e7          	jalr	-1764(ra) # 80001d88 <_ZN6ThreadD1Ev>
    80004474:	00813083          	ld	ra,8(sp)
    80004478:	00013403          	ld	s0,0(sp)
    8000447c:	01010113          	addi	sp,sp,16
    80004480:	00008067          	ret

0000000080004484 <_ZN8ProducerD0Ev>:
    80004484:	fe010113          	addi	sp,sp,-32
    80004488:	00113c23          	sd	ra,24(sp)
    8000448c:	00813823          	sd	s0,16(sp)
    80004490:	00913423          	sd	s1,8(sp)
    80004494:	02010413          	addi	s0,sp,32
    80004498:	00050493          	mv	s1,a0
    8000449c:	00007797          	auipc	a5,0x7
    800044a0:	36c78793          	addi	a5,a5,876 # 8000b808 <_ZTV8Producer+0x10>
    800044a4:	00f53023          	sd	a5,0(a0)
    800044a8:	ffffe097          	auipc	ra,0xffffe
    800044ac:	8e0080e7          	jalr	-1824(ra) # 80001d88 <_ZN6ThreadD1Ev>
    800044b0:	00048513          	mv	a0,s1
    800044b4:	ffffe097          	auipc	ra,0xffffe
    800044b8:	9a0080e7          	jalr	-1632(ra) # 80001e54 <_ZdlPv>
    800044bc:	01813083          	ld	ra,24(sp)
    800044c0:	01013403          	ld	s0,16(sp)
    800044c4:	00813483          	ld	s1,8(sp)
    800044c8:	02010113          	addi	sp,sp,32
    800044cc:	00008067          	ret

00000000800044d0 <_ZN16ProducerKeyborad3runEv>:
    void run() override {
    800044d0:	fe010113          	addi	sp,sp,-32
    800044d4:	00113c23          	sd	ra,24(sp)
    800044d8:	00813823          	sd	s0,16(sp)
    800044dc:	00913423          	sd	s1,8(sp)
    800044e0:	02010413          	addi	s0,sp,32
    800044e4:	00050493          	mv	s1,a0
        while ((key = getc()) != 0x30) {
    800044e8:	ffffd097          	auipc	ra,0xffffd
    800044ec:	f8c080e7          	jalr	-116(ra) # 80001474 <getc>
    800044f0:	0005059b          	sext.w	a1,a0
    800044f4:	03000793          	li	a5,48
    800044f8:	00f58c63          	beq	a1,a5,80004510 <_ZN16ProducerKeyborad3runEv+0x40>
            td->buffer->put(key);
    800044fc:	0204b783          	ld	a5,32(s1)
    80004500:	0087b503          	ld	a0,8(a5)
    80004504:	00001097          	auipc	ra,0x1
    80004508:	36c080e7          	jalr	876(ra) # 80005870 <_ZN9BufferCPP3putEi>
        while ((key = getc()) != 0x30) {
    8000450c:	fddff06f          	j	800044e8 <_ZN16ProducerKeyborad3runEv+0x18>
        threadEnd = 1;
    80004510:	00100793          	li	a5,1
    80004514:	00007717          	auipc	a4,0x7
    80004518:	4cf72223          	sw	a5,1220(a4) # 8000b9d8 <_ZL9threadEnd>
        td->buffer->put('!');
    8000451c:	0204b783          	ld	a5,32(s1)
    80004520:	02100593          	li	a1,33
    80004524:	0087b503          	ld	a0,8(a5)
    80004528:	00001097          	auipc	ra,0x1
    8000452c:	348080e7          	jalr	840(ra) # 80005870 <_ZN9BufferCPP3putEi>
        td->sem->signal();
    80004530:	0204b783          	ld	a5,32(s1)
    80004534:	0107b503          	ld	a0,16(a5)
    80004538:	ffffe097          	auipc	ra,0xffffe
    8000453c:	b48080e7          	jalr	-1208(ra) # 80002080 <_ZN9Semaphore6signalEv>
    }
    80004540:	01813083          	ld	ra,24(sp)
    80004544:	01013403          	ld	s0,16(sp)
    80004548:	00813483          	ld	s1,8(sp)
    8000454c:	02010113          	addi	sp,sp,32
    80004550:	00008067          	ret

0000000080004554 <_ZN8Producer3runEv>:
    void run() override {
    80004554:	fe010113          	addi	sp,sp,-32
    80004558:	00113c23          	sd	ra,24(sp)
    8000455c:	00813823          	sd	s0,16(sp)
    80004560:	00913423          	sd	s1,8(sp)
    80004564:	01213023          	sd	s2,0(sp)
    80004568:	02010413          	addi	s0,sp,32
    8000456c:	00050493          	mv	s1,a0
        int i = 0;
    80004570:	00000913          	li	s2,0
        while (!threadEnd) {
    80004574:	00007797          	auipc	a5,0x7
    80004578:	4647a783          	lw	a5,1124(a5) # 8000b9d8 <_ZL9threadEnd>
    8000457c:	04079263          	bnez	a5,800045c0 <_ZN8Producer3runEv+0x6c>
            td->buffer->put(td->id + '0');
    80004580:	0204b783          	ld	a5,32(s1)
    80004584:	0007a583          	lw	a1,0(a5)
    80004588:	0305859b          	addiw	a1,a1,48
    8000458c:	0087b503          	ld	a0,8(a5)
    80004590:	00001097          	auipc	ra,0x1
    80004594:	2e0080e7          	jalr	736(ra) # 80005870 <_ZN9BufferCPP3putEi>
            i++;
    80004598:	0019071b          	addiw	a4,s2,1
    8000459c:	0007091b          	sext.w	s2,a4
            Thread::sleep((i + td->id) % 5);
    800045a0:	0204b783          	ld	a5,32(s1)
    800045a4:	0007a783          	lw	a5,0(a5)
    800045a8:	00e787bb          	addw	a5,a5,a4
    800045ac:	00500513          	li	a0,5
    800045b0:	02a7e53b          	remw	a0,a5,a0
    800045b4:	ffffe097          	auipc	ra,0xffffe
    800045b8:	af8080e7          	jalr	-1288(ra) # 800020ac <_ZN6Thread5sleepEm>
        while (!threadEnd) {
    800045bc:	fb9ff06f          	j	80004574 <_ZN8Producer3runEv+0x20>
        td->sem->signal();
    800045c0:	0204b783          	ld	a5,32(s1)
    800045c4:	0107b503          	ld	a0,16(a5)
    800045c8:	ffffe097          	auipc	ra,0xffffe
    800045cc:	ab8080e7          	jalr	-1352(ra) # 80002080 <_ZN9Semaphore6signalEv>
    }
    800045d0:	01813083          	ld	ra,24(sp)
    800045d4:	01013403          	ld	s0,16(sp)
    800045d8:	00813483          	ld	s1,8(sp)
    800045dc:	00013903          	ld	s2,0(sp)
    800045e0:	02010113          	addi	sp,sp,32
    800045e4:	00008067          	ret

00000000800045e8 <_ZL9fibonaccim>:
static volatile bool finishedA = false;
static volatile bool finishedB = false;
static volatile bool finishedC = false;
static volatile bool finishedD = false;

static uint64 fibonacci(uint64 n) {
    800045e8:	fe010113          	addi	sp,sp,-32
    800045ec:	00113c23          	sd	ra,24(sp)
    800045f0:	00813823          	sd	s0,16(sp)
    800045f4:	00913423          	sd	s1,8(sp)
    800045f8:	01213023          	sd	s2,0(sp)
    800045fc:	02010413          	addi	s0,sp,32
    80004600:	00050493          	mv	s1,a0
    if (n == 0 || n == 1) { return n; }
    80004604:	00100793          	li	a5,1
    80004608:	02a7f863          	bgeu	a5,a0,80004638 <_ZL9fibonaccim+0x50>
    if (n % 10 == 0) { thread_dispatch(); }
    8000460c:	00a00793          	li	a5,10
    80004610:	02f577b3          	remu	a5,a0,a5
    80004614:	02078e63          	beqz	a5,80004650 <_ZL9fibonaccim+0x68>
    return fibonacci(n - 1) + fibonacci(n - 2);
    80004618:	fff48513          	addi	a0,s1,-1
    8000461c:	00000097          	auipc	ra,0x0
    80004620:	fcc080e7          	jalr	-52(ra) # 800045e8 <_ZL9fibonaccim>
    80004624:	00050913          	mv	s2,a0
    80004628:	ffe48513          	addi	a0,s1,-2
    8000462c:	00000097          	auipc	ra,0x0
    80004630:	fbc080e7          	jalr	-68(ra) # 800045e8 <_ZL9fibonaccim>
    80004634:	00a90533          	add	a0,s2,a0
}
    80004638:	01813083          	ld	ra,24(sp)
    8000463c:	01013403          	ld	s0,16(sp)
    80004640:	00813483          	ld	s1,8(sp)
    80004644:	00013903          	ld	s2,0(sp)
    80004648:	02010113          	addi	sp,sp,32
    8000464c:	00008067          	ret
    if (n % 10 == 0) { thread_dispatch(); }
    80004650:	ffffd097          	auipc	ra,0xffffd
    80004654:	c3c080e7          	jalr	-964(ra) # 8000128c <thread_dispatch>
    80004658:	fc1ff06f          	j	80004618 <_ZL9fibonaccim+0x30>

000000008000465c <_ZL11workerBodyDPv>:
    printString("A finished!\n");
    finishedC = true;
    thread_dispatch();
}

static void workerBodyD(void* arg) {
    8000465c:	fe010113          	addi	sp,sp,-32
    80004660:	00113c23          	sd	ra,24(sp)
    80004664:	00813823          	sd	s0,16(sp)
    80004668:	00913423          	sd	s1,8(sp)
    8000466c:	01213023          	sd	s2,0(sp)
    80004670:	02010413          	addi	s0,sp,32
    uint8 i = 10;
    80004674:	00a00493          	li	s1,10
    80004678:	0400006f          	j	800046b8 <_ZL11workerBodyDPv+0x5c>
    for (; i < 13; i++) {
        printString("D: i="); printInt(i); printString("\n");
    8000467c:	00005517          	auipc	a0,0x5
    80004680:	9e450513          	addi	a0,a0,-1564 # 80009060 <CONSOLE_STATUS+0x50>
    80004684:	00001097          	auipc	ra,0x1
    80004688:	dc8080e7          	jalr	-568(ra) # 8000544c <_Z11printStringPKc>
    8000468c:	00000613          	li	a2,0
    80004690:	00a00593          	li	a1,10
    80004694:	00048513          	mv	a0,s1
    80004698:	00001097          	auipc	ra,0x1
    8000469c:	f64080e7          	jalr	-156(ra) # 800055fc <_Z8printIntiii>
    800046a0:	00005517          	auipc	a0,0x5
    800046a4:	f2050513          	addi	a0,a0,-224 # 800095c0 <CONSOLE_STATUS+0x5b0>
    800046a8:	00001097          	auipc	ra,0x1
    800046ac:	da4080e7          	jalr	-604(ra) # 8000544c <_Z11printStringPKc>
    for (; i < 13; i++) {
    800046b0:	0014849b          	addiw	s1,s1,1
    800046b4:	0ff4f493          	andi	s1,s1,255
    800046b8:	00c00793          	li	a5,12
    800046bc:	fc97f0e3          	bgeu	a5,s1,8000467c <_ZL11workerBodyDPv+0x20>
    }

    printString("D: dispatch\n");
    800046c0:	00005517          	auipc	a0,0x5
    800046c4:	d2850513          	addi	a0,a0,-728 # 800093e8 <CONSOLE_STATUS+0x3d8>
    800046c8:	00001097          	auipc	ra,0x1
    800046cc:	d84080e7          	jalr	-636(ra) # 8000544c <_Z11printStringPKc>
    __asm__ ("li t1, 5");
    800046d0:	00500313          	li	t1,5
    thread_dispatch();
    800046d4:	ffffd097          	auipc	ra,0xffffd
    800046d8:	bb8080e7          	jalr	-1096(ra) # 8000128c <thread_dispatch>

    uint64 result = fibonacci(16);
    800046dc:	01000513          	li	a0,16
    800046e0:	00000097          	auipc	ra,0x0
    800046e4:	f08080e7          	jalr	-248(ra) # 800045e8 <_ZL9fibonaccim>
    800046e8:	00050913          	mv	s2,a0
    printString("D: fibonaci="); printInt(result); printString("\n");
    800046ec:	00005517          	auipc	a0,0x5
    800046f0:	98c50513          	addi	a0,a0,-1652 # 80009078 <CONSOLE_STATUS+0x68>
    800046f4:	00001097          	auipc	ra,0x1
    800046f8:	d58080e7          	jalr	-680(ra) # 8000544c <_Z11printStringPKc>
    800046fc:	00000613          	li	a2,0
    80004700:	00a00593          	li	a1,10
    80004704:	0009051b          	sext.w	a0,s2
    80004708:	00001097          	auipc	ra,0x1
    8000470c:	ef4080e7          	jalr	-268(ra) # 800055fc <_Z8printIntiii>
    80004710:	00005517          	auipc	a0,0x5
    80004714:	eb050513          	addi	a0,a0,-336 # 800095c0 <CONSOLE_STATUS+0x5b0>
    80004718:	00001097          	auipc	ra,0x1
    8000471c:	d34080e7          	jalr	-716(ra) # 8000544c <_Z11printStringPKc>
    80004720:	0400006f          	j	80004760 <_ZL11workerBodyDPv+0x104>

    for (; i < 16; i++) {
        printString("D: i="); printInt(i); printString("\n");
    80004724:	00005517          	auipc	a0,0x5
    80004728:	93c50513          	addi	a0,a0,-1732 # 80009060 <CONSOLE_STATUS+0x50>
    8000472c:	00001097          	auipc	ra,0x1
    80004730:	d20080e7          	jalr	-736(ra) # 8000544c <_Z11printStringPKc>
    80004734:	00000613          	li	a2,0
    80004738:	00a00593          	li	a1,10
    8000473c:	00048513          	mv	a0,s1
    80004740:	00001097          	auipc	ra,0x1
    80004744:	ebc080e7          	jalr	-324(ra) # 800055fc <_Z8printIntiii>
    80004748:	00005517          	auipc	a0,0x5
    8000474c:	e7850513          	addi	a0,a0,-392 # 800095c0 <CONSOLE_STATUS+0x5b0>
    80004750:	00001097          	auipc	ra,0x1
    80004754:	cfc080e7          	jalr	-772(ra) # 8000544c <_Z11printStringPKc>
    for (; i < 16; i++) {
    80004758:	0014849b          	addiw	s1,s1,1
    8000475c:	0ff4f493          	andi	s1,s1,255
    80004760:	00f00793          	li	a5,15
    80004764:	fc97f0e3          	bgeu	a5,s1,80004724 <_ZL11workerBodyDPv+0xc8>
    }

    printString("D finished!\n");
    80004768:	00005517          	auipc	a0,0x5
    8000476c:	c9050513          	addi	a0,a0,-880 # 800093f8 <CONSOLE_STATUS+0x3e8>
    80004770:	00001097          	auipc	ra,0x1
    80004774:	cdc080e7          	jalr	-804(ra) # 8000544c <_Z11printStringPKc>
    finishedD = true;
    80004778:	00100793          	li	a5,1
    8000477c:	00007717          	auipc	a4,0x7
    80004780:	26f70623          	sb	a5,620(a4) # 8000b9e8 <_ZL9finishedD>
    thread_dispatch();
    80004784:	ffffd097          	auipc	ra,0xffffd
    80004788:	b08080e7          	jalr	-1272(ra) # 8000128c <thread_dispatch>
}
    8000478c:	01813083          	ld	ra,24(sp)
    80004790:	01013403          	ld	s0,16(sp)
    80004794:	00813483          	ld	s1,8(sp)
    80004798:	00013903          	ld	s2,0(sp)
    8000479c:	02010113          	addi	sp,sp,32
    800047a0:	00008067          	ret

00000000800047a4 <_ZL11workerBodyCPv>:
static void workerBodyC(void* arg) {
    800047a4:	fe010113          	addi	sp,sp,-32
    800047a8:	00113c23          	sd	ra,24(sp)
    800047ac:	00813823          	sd	s0,16(sp)
    800047b0:	00913423          	sd	s1,8(sp)
    800047b4:	01213023          	sd	s2,0(sp)
    800047b8:	02010413          	addi	s0,sp,32
    uint8 i = 0;
    800047bc:	00000493          	li	s1,0
    800047c0:	0400006f          	j	80004800 <_ZL11workerBodyCPv+0x5c>
        printString("C: i="); printInt(i); printString("\n");
    800047c4:	00005517          	auipc	a0,0x5
    800047c8:	86c50513          	addi	a0,a0,-1940 # 80009030 <CONSOLE_STATUS+0x20>
    800047cc:	00001097          	auipc	ra,0x1
    800047d0:	c80080e7          	jalr	-896(ra) # 8000544c <_Z11printStringPKc>
    800047d4:	00000613          	li	a2,0
    800047d8:	00a00593          	li	a1,10
    800047dc:	00048513          	mv	a0,s1
    800047e0:	00001097          	auipc	ra,0x1
    800047e4:	e1c080e7          	jalr	-484(ra) # 800055fc <_Z8printIntiii>
    800047e8:	00005517          	auipc	a0,0x5
    800047ec:	dd850513          	addi	a0,a0,-552 # 800095c0 <CONSOLE_STATUS+0x5b0>
    800047f0:	00001097          	auipc	ra,0x1
    800047f4:	c5c080e7          	jalr	-932(ra) # 8000544c <_Z11printStringPKc>
    for (; i < 3; i++) {
    800047f8:	0014849b          	addiw	s1,s1,1
    800047fc:	0ff4f493          	andi	s1,s1,255
    80004800:	00200793          	li	a5,2
    80004804:	fc97f0e3          	bgeu	a5,s1,800047c4 <_ZL11workerBodyCPv+0x20>
    printString("C: dispatch\n");
    80004808:	00005517          	auipc	a0,0x5
    8000480c:	bd050513          	addi	a0,a0,-1072 # 800093d8 <CONSOLE_STATUS+0x3c8>
    80004810:	00001097          	auipc	ra,0x1
    80004814:	c3c080e7          	jalr	-964(ra) # 8000544c <_Z11printStringPKc>
    __asm__ ("li t1, 7");
    80004818:	00700313          	li	t1,7
    thread_dispatch();
    8000481c:	ffffd097          	auipc	ra,0xffffd
    80004820:	a70080e7          	jalr	-1424(ra) # 8000128c <thread_dispatch>
    __asm__ ("mv %[t1], t1" : [t1] "=r"(t1));
    80004824:	00030913          	mv	s2,t1
    printString("C: t1="); printInt(t1); printString("\n");
    80004828:	00005517          	auipc	a0,0x5
    8000482c:	82050513          	addi	a0,a0,-2016 # 80009048 <CONSOLE_STATUS+0x38>
    80004830:	00001097          	auipc	ra,0x1
    80004834:	c1c080e7          	jalr	-996(ra) # 8000544c <_Z11printStringPKc>
    80004838:	00000613          	li	a2,0
    8000483c:	00a00593          	li	a1,10
    80004840:	0009051b          	sext.w	a0,s2
    80004844:	00001097          	auipc	ra,0x1
    80004848:	db8080e7          	jalr	-584(ra) # 800055fc <_Z8printIntiii>
    8000484c:	00005517          	auipc	a0,0x5
    80004850:	d7450513          	addi	a0,a0,-652 # 800095c0 <CONSOLE_STATUS+0x5b0>
    80004854:	00001097          	auipc	ra,0x1
    80004858:	bf8080e7          	jalr	-1032(ra) # 8000544c <_Z11printStringPKc>
    uint64 result = fibonacci(12);
    8000485c:	00c00513          	li	a0,12
    80004860:	00000097          	auipc	ra,0x0
    80004864:	d88080e7          	jalr	-632(ra) # 800045e8 <_ZL9fibonaccim>
    80004868:	00050913          	mv	s2,a0
    printString("C: fibonaci="); printInt(result); printString("\n");
    8000486c:	00004517          	auipc	a0,0x4
    80004870:	7e450513          	addi	a0,a0,2020 # 80009050 <CONSOLE_STATUS+0x40>
    80004874:	00001097          	auipc	ra,0x1
    80004878:	bd8080e7          	jalr	-1064(ra) # 8000544c <_Z11printStringPKc>
    8000487c:	00000613          	li	a2,0
    80004880:	00a00593          	li	a1,10
    80004884:	0009051b          	sext.w	a0,s2
    80004888:	00001097          	auipc	ra,0x1
    8000488c:	d74080e7          	jalr	-652(ra) # 800055fc <_Z8printIntiii>
    80004890:	00005517          	auipc	a0,0x5
    80004894:	d3050513          	addi	a0,a0,-720 # 800095c0 <CONSOLE_STATUS+0x5b0>
    80004898:	00001097          	auipc	ra,0x1
    8000489c:	bb4080e7          	jalr	-1100(ra) # 8000544c <_Z11printStringPKc>
    800048a0:	0400006f          	j	800048e0 <_ZL11workerBodyCPv+0x13c>
        printString("C: i="); printInt(i); printString("\n");
    800048a4:	00004517          	auipc	a0,0x4
    800048a8:	78c50513          	addi	a0,a0,1932 # 80009030 <CONSOLE_STATUS+0x20>
    800048ac:	00001097          	auipc	ra,0x1
    800048b0:	ba0080e7          	jalr	-1120(ra) # 8000544c <_Z11printStringPKc>
    800048b4:	00000613          	li	a2,0
    800048b8:	00a00593          	li	a1,10
    800048bc:	00048513          	mv	a0,s1
    800048c0:	00001097          	auipc	ra,0x1
    800048c4:	d3c080e7          	jalr	-708(ra) # 800055fc <_Z8printIntiii>
    800048c8:	00005517          	auipc	a0,0x5
    800048cc:	cf850513          	addi	a0,a0,-776 # 800095c0 <CONSOLE_STATUS+0x5b0>
    800048d0:	00001097          	auipc	ra,0x1
    800048d4:	b7c080e7          	jalr	-1156(ra) # 8000544c <_Z11printStringPKc>
    for (; i < 6; i++) {
    800048d8:	0014849b          	addiw	s1,s1,1
    800048dc:	0ff4f493          	andi	s1,s1,255
    800048e0:	00500793          	li	a5,5
    800048e4:	fc97f0e3          	bgeu	a5,s1,800048a4 <_ZL11workerBodyCPv+0x100>
    printString("A finished!\n");
    800048e8:	00005517          	auipc	a0,0x5
    800048ec:	ad050513          	addi	a0,a0,-1328 # 800093b8 <CONSOLE_STATUS+0x3a8>
    800048f0:	00001097          	auipc	ra,0x1
    800048f4:	b5c080e7          	jalr	-1188(ra) # 8000544c <_Z11printStringPKc>
    finishedC = true;
    800048f8:	00100793          	li	a5,1
    800048fc:	00007717          	auipc	a4,0x7
    80004900:	0ef706a3          	sb	a5,237(a4) # 8000b9e9 <_ZL9finishedC>
    thread_dispatch();
    80004904:	ffffd097          	auipc	ra,0xffffd
    80004908:	988080e7          	jalr	-1656(ra) # 8000128c <thread_dispatch>
}
    8000490c:	01813083          	ld	ra,24(sp)
    80004910:	01013403          	ld	s0,16(sp)
    80004914:	00813483          	ld	s1,8(sp)
    80004918:	00013903          	ld	s2,0(sp)
    8000491c:	02010113          	addi	sp,sp,32
    80004920:	00008067          	ret

0000000080004924 <_ZL11workerBodyBPv>:
static void workerBodyB(void* arg) {
    80004924:	fe010113          	addi	sp,sp,-32
    80004928:	00113c23          	sd	ra,24(sp)
    8000492c:	00813823          	sd	s0,16(sp)
    80004930:	00913423          	sd	s1,8(sp)
    80004934:	01213023          	sd	s2,0(sp)
    80004938:	02010413          	addi	s0,sp,32
    for (uint64 i = 0; i < 16; i++) {
    8000493c:	00000913          	li	s2,0
    80004940:	0380006f          	j	80004978 <_ZL11workerBodyBPv+0x54>
            thread_dispatch();
    80004944:	ffffd097          	auipc	ra,0xffffd
    80004948:	948080e7          	jalr	-1720(ra) # 8000128c <thread_dispatch>
        for (uint64 j = 0; j < 10000; j++) {
    8000494c:	00148493          	addi	s1,s1,1
    80004950:	000027b7          	lui	a5,0x2
    80004954:	70f78793          	addi	a5,a5,1807 # 270f <_entry-0x7fffd8f1>
    80004958:	0097ee63          	bltu	a5,s1,80004974 <_ZL11workerBodyBPv+0x50>
            for (uint64 k = 0; k < 30000; k++) { /* busy wait */ }
    8000495c:	00000713          	li	a4,0
    80004960:	000077b7          	lui	a5,0x7
    80004964:	52f78793          	addi	a5,a5,1327 # 752f <_entry-0x7fff8ad1>
    80004968:	fce7eee3          	bltu	a5,a4,80004944 <_ZL11workerBodyBPv+0x20>
    8000496c:	00170713          	addi	a4,a4,1
    80004970:	ff1ff06f          	j	80004960 <_ZL11workerBodyBPv+0x3c>
    for (uint64 i = 0; i < 16; i++) {
    80004974:	00190913          	addi	s2,s2,1
    80004978:	00f00793          	li	a5,15
    8000497c:	0527e063          	bltu	a5,s2,800049bc <_ZL11workerBodyBPv+0x98>
        printString("B: i="); printInt(i); printString("\n");
    80004980:	00004517          	auipc	a0,0x4
    80004984:	6a850513          	addi	a0,a0,1704 # 80009028 <CONSOLE_STATUS+0x18>
    80004988:	00001097          	auipc	ra,0x1
    8000498c:	ac4080e7          	jalr	-1340(ra) # 8000544c <_Z11printStringPKc>
    80004990:	00000613          	li	a2,0
    80004994:	00a00593          	li	a1,10
    80004998:	0009051b          	sext.w	a0,s2
    8000499c:	00001097          	auipc	ra,0x1
    800049a0:	c60080e7          	jalr	-928(ra) # 800055fc <_Z8printIntiii>
    800049a4:	00005517          	auipc	a0,0x5
    800049a8:	c1c50513          	addi	a0,a0,-996 # 800095c0 <CONSOLE_STATUS+0x5b0>
    800049ac:	00001097          	auipc	ra,0x1
    800049b0:	aa0080e7          	jalr	-1376(ra) # 8000544c <_Z11printStringPKc>
        for (uint64 j = 0; j < 10000; j++) {
    800049b4:	00000493          	li	s1,0
    800049b8:	f99ff06f          	j	80004950 <_ZL11workerBodyBPv+0x2c>
    printString("B finished!\n");
    800049bc:	00005517          	auipc	a0,0x5
    800049c0:	a0c50513          	addi	a0,a0,-1524 # 800093c8 <CONSOLE_STATUS+0x3b8>
    800049c4:	00001097          	auipc	ra,0x1
    800049c8:	a88080e7          	jalr	-1400(ra) # 8000544c <_Z11printStringPKc>
    finishedB = true;
    800049cc:	00100793          	li	a5,1
    800049d0:	00007717          	auipc	a4,0x7
    800049d4:	00f70d23          	sb	a5,26(a4) # 8000b9ea <_ZL9finishedB>
    thread_dispatch();
    800049d8:	ffffd097          	auipc	ra,0xffffd
    800049dc:	8b4080e7          	jalr	-1868(ra) # 8000128c <thread_dispatch>
}
    800049e0:	01813083          	ld	ra,24(sp)
    800049e4:	01013403          	ld	s0,16(sp)
    800049e8:	00813483          	ld	s1,8(sp)
    800049ec:	00013903          	ld	s2,0(sp)
    800049f0:	02010113          	addi	sp,sp,32
    800049f4:	00008067          	ret

00000000800049f8 <_ZL11workerBodyAPv>:
static void workerBodyA(void* arg) {
    800049f8:	fe010113          	addi	sp,sp,-32
    800049fc:	00113c23          	sd	ra,24(sp)
    80004a00:	00813823          	sd	s0,16(sp)
    80004a04:	00913423          	sd	s1,8(sp)
    80004a08:	01213023          	sd	s2,0(sp)
    80004a0c:	02010413          	addi	s0,sp,32
    for (uint64 i = 0; i < 10; i++) {
    80004a10:	00000913          	li	s2,0
    80004a14:	0380006f          	j	80004a4c <_ZL11workerBodyAPv+0x54>
            thread_dispatch();
    80004a18:	ffffd097          	auipc	ra,0xffffd
    80004a1c:	874080e7          	jalr	-1932(ra) # 8000128c <thread_dispatch>
        for (uint64 j = 0; j < 10000; j++) {
    80004a20:	00148493          	addi	s1,s1,1
    80004a24:	000027b7          	lui	a5,0x2
    80004a28:	70f78793          	addi	a5,a5,1807 # 270f <_entry-0x7fffd8f1>
    80004a2c:	0097ee63          	bltu	a5,s1,80004a48 <_ZL11workerBodyAPv+0x50>
            for (uint64 k = 0; k < 30000; k++) { /* busy wait */ }
    80004a30:	00000713          	li	a4,0
    80004a34:	000077b7          	lui	a5,0x7
    80004a38:	52f78793          	addi	a5,a5,1327 # 752f <_entry-0x7fff8ad1>
    80004a3c:	fce7eee3          	bltu	a5,a4,80004a18 <_ZL11workerBodyAPv+0x20>
    80004a40:	00170713          	addi	a4,a4,1
    80004a44:	ff1ff06f          	j	80004a34 <_ZL11workerBodyAPv+0x3c>
    for (uint64 i = 0; i < 10; i++) {
    80004a48:	00190913          	addi	s2,s2,1
    80004a4c:	00900793          	li	a5,9
    80004a50:	0527e063          	bltu	a5,s2,80004a90 <_ZL11workerBodyAPv+0x98>
        printString("A: i="); printInt(i); printString("\n");
    80004a54:	00004517          	auipc	a0,0x4
    80004a58:	5cc50513          	addi	a0,a0,1484 # 80009020 <CONSOLE_STATUS+0x10>
    80004a5c:	00001097          	auipc	ra,0x1
    80004a60:	9f0080e7          	jalr	-1552(ra) # 8000544c <_Z11printStringPKc>
    80004a64:	00000613          	li	a2,0
    80004a68:	00a00593          	li	a1,10
    80004a6c:	0009051b          	sext.w	a0,s2
    80004a70:	00001097          	auipc	ra,0x1
    80004a74:	b8c080e7          	jalr	-1140(ra) # 800055fc <_Z8printIntiii>
    80004a78:	00005517          	auipc	a0,0x5
    80004a7c:	b4850513          	addi	a0,a0,-1208 # 800095c0 <CONSOLE_STATUS+0x5b0>
    80004a80:	00001097          	auipc	ra,0x1
    80004a84:	9cc080e7          	jalr	-1588(ra) # 8000544c <_Z11printStringPKc>
        for (uint64 j = 0; j < 10000; j++) {
    80004a88:	00000493          	li	s1,0
    80004a8c:	f99ff06f          	j	80004a24 <_ZL11workerBodyAPv+0x2c>
    printString("A finished!\n");
    80004a90:	00005517          	auipc	a0,0x5
    80004a94:	92850513          	addi	a0,a0,-1752 # 800093b8 <CONSOLE_STATUS+0x3a8>
    80004a98:	00001097          	auipc	ra,0x1
    80004a9c:	9b4080e7          	jalr	-1612(ra) # 8000544c <_Z11printStringPKc>
    finishedA = true;
    80004aa0:	00100793          	li	a5,1
    80004aa4:	00007717          	auipc	a4,0x7
    80004aa8:	f4f703a3          	sb	a5,-185(a4) # 8000b9eb <_ZL9finishedA>
}
    80004aac:	01813083          	ld	ra,24(sp)
    80004ab0:	01013403          	ld	s0,16(sp)
    80004ab4:	00813483          	ld	s1,8(sp)
    80004ab8:	00013903          	ld	s2,0(sp)
    80004abc:	02010113          	addi	sp,sp,32
    80004ac0:	00008067          	ret

0000000080004ac4 <_Z18Threads_C_API_testv>:


void Threads_C_API_test() {
    80004ac4:	fd010113          	addi	sp,sp,-48
    80004ac8:	02113423          	sd	ra,40(sp)
    80004acc:	02813023          	sd	s0,32(sp)
    80004ad0:	03010413          	addi	s0,sp,48
    thread_t threads[4];
    thread_create(&threads[0], workerBodyA, nullptr);
    80004ad4:	00000613          	li	a2,0
    80004ad8:	00000597          	auipc	a1,0x0
    80004adc:	f2058593          	addi	a1,a1,-224 # 800049f8 <_ZL11workerBodyAPv>
    80004ae0:	fd040513          	addi	a0,s0,-48
    80004ae4:	ffffc097          	auipc	ra,0xffffc
    80004ae8:	708080e7          	jalr	1800(ra) # 800011ec <thread_create>
